(dp0
Vhanging
p1
I606
sVconsists
p2
I279
sVoldest
p3
I893
sVincrease
p4
I662
sVbike
p5
I156
sVinwards
p6
I696
sVworth
p7
I1469
sValternating
p8
I61
sVrisk
p9
I1111
sVrise
p10
I1110
sVdelt
p11
I348
sVbringing
p12
I187
sVinterlocking
p13
I689
sVschool
p14
I1144
sVskills
p15
I1198
sVsupports
p16
I1322
sVups
p17
I1428
sVbicycle
p18
I152
sVconsistent
p19
I278
sVpubic
p20
I1020
sVdirect
p21
I373
sVpreacher
p22
I999
sVsurrounding
p23
I1325
sVsecond
p24
I1150
sVparter
p25
I925
sVsustaining
p26
I1328
sVshoulders3
p27
I1180
sVshrugging
p28
I1182
sVmachines
p29
I822
sVaim
p30
I50
sVrelieving
p31
I1080
sVsemicircular
p32
I1162
sVfingers
p33
I490
sVnew
p34
I880
sVtips
p35
I1372
sVincreasing
p36
I665
sVcrunch
p37
I313
sVchins
p38
I230
sVwrapping
p39
I1472
sVcontraction
p40
I289
sVrests
p41
I1097
sVcompletely
p42
I266
sVapproaches
p43
I73
sVzercher
p44
I1479
sVmilitary
p45
I848
sVsecure
p46
I1154
sVstrap
p47
I1295
sVbrought
p48
I190
sVarms
p49
I84
sVoverhead
p50
I910
sVrecommend
p51
I1064
sVtype
p52
I1410
sVcalf
p53
I207
sVbreathe
p54
I181
sVlungs
p55
I818
sVrelax
p56
I1075
sVsuccessful
p57
I1312
sVbrings
p58
I188
sVlunge
p59
I816
sVbreaths
p60
I183
sVexcellent
p61
I442
sV90
p62
I14
sVhold
p63
I629
sVjoin
p64
I706
sVroom
p65
I1124
sVblade
p66
I159
sVadjusting
p67
I43
sVelbow
p68
I422
sVexhale
p69
I447
sVfists
p70
I497
sVloosen
p71
I804
sVunilateral
p72
I1419
sVinvolve
p73
I693
sVwant
p74
I1447
sVcalve
p75
I209
sVsupinated
p76
I1317
sVrecovery
p77
I1066
sVturn
p78
I1404
sVprovide
p79
I1018
sVsitting
p80
I1195
sVdamage
p81
I331
sVmachine
p82
I821
sVadjacent
p83
I39
sVoceans
p84
I890
sVabdomen
p85
I16
sVunderhand
p86
I1415
sVbefor
p87
I129
sVjumping
p88
I711
sVlay
p89
I744
sVlat
p90
I740
sVarch
p91
I75
sVparallel
p92
I924
sVcalves
p93
I210
sVeffective
p94
I418
sVhamstrings
p95
I595
sVmaintain
p96
I825
sVkeeps
p97
I715
sVorder
p98
I900
sVuncross
p99
I1414
sVdown4
p100
I389
sVunderside
p101
I1417
sVdiagonally
p102
I363
sVmanageable
p103
I834
sVbetter
p104
I146
sVdifferently
p105
I367
sVeasier
p106
I411
sVdescend
p107
I354
sVcombination
p108
I255
sVjerking
p109
I705
sVexhaling
p110
I448
sVsafe
p111
I1140
sVband
p112
I118
sVswaying
p113
I1329
sValternately
p114
I60
sVexplode
p115
I451
sVfitness
p116
I498
sVbone
p117
I171
sVlifted
p118
I772
sVdirectly
p119
I375
sVspider
p120
I1226
sVcontracting
p121
I288
sVpositiontips
p122
I984
sVdriving
p123
I398
sVstart5
p124
I1266
sVlaid
p125
I733
sVmedicine
p126
I844
sVforth
p127
I547
sVturning
p128
I1406
sVgammer
p129
I558
sVfree
p130
I553
sVstandard
p131
I1261
sVstruggle
p132
I1310
sVwanted
p133
I1448
sVincorporates
p134
I659
sVstarts
p135
I1269
sVdeadlift
p136
I334
sVcreates
p137
I302
sViso
p138
I698
sVuses
p139
I1433
sVhamstring
p140
I594
sVhook
p141
I634
sVspinning
p142
I1228
sVforce
p143
I535
sVcrunches
p144
I314
sVtwisted
p145
I1408
sVneeded
p146
I878
sVmaster
p147
I839
sVlegs
p148
I758
sVtoe
p149
I1375
sVceiling
p150
I219
sVcentered
p151
I221
sVbouncing
p152
I173
sVgym
p153
I588
sVwrapped
p154
I1471
sVfloor2
p155
I512
sVfloor3
p156
I513
sVdistance
p157
I377
sVreclining
p158
I1063
sVtarget
p159
I1341
sVconforms
p160
I274
sVlikely
p161
I781
sVseated
p162
I1149
sVpreparation
p163
I1002
sViron
p164
I697
sVfeeling
p165
I478
sVleg5
p166
I756
sVbridge
p167
I184
sVdonkey
p168
I386
sVelevating
p169
I426
sVpecs
p170
I937
sVmanner
p171
I835
sVstomach
p172
I1284
sVrelatively
p173
I1074
sVforced
p174
I536
sVstrength
p175
I1297
sVchest
p176
I228
sVforces
p177
I539
sVgrips
p178
I582
sVeffectiveness
p179
I420
sVcircles
p180
I233
sVstirrup
p181
I1283
sVobject
p182
I886
sVextending
p183
I456
sVregular
p184
I1072
sVexercises
p185
I446
sVdon
p186
I385
sVflow
p187
I514
sVdog
p188
I382
sVbodybuilder
p189
I169
sVpadded
p190
I915
sVattempts
p191
I100
sVstepping
p192
I1278
sVpossibletips
p193
I988
sVtouches
p194
I1385
sVresisting
p195
I1093
sVfolded
p196
I525
sVtheme
p197
I1348
sVversion
p198
I1439
sVplate
p199
I967
sVwide
p200
I1458
sVstop
p201
I1285
sVpreferred
p202
I1001
sVbar
p203
I120
sVunlatch
p204
I1421
sVrowing
p205
I1136
sVdipping
p206
I372
sVthrusts
p207
I1358
sVrelease
p208
I1078
sVears
p209
I409
sVblet
p210
I163
sVpads
p211
I917
sVresult
p212
I1098
sVhammer
p213
I592
sVbest
p214
I145
sV00
p215
I0
sVaway
p216
I105
sVfinger
p217
I489
sVsimplest
p218
I1190
sVdrawn
p219
I395
sVwarrior
p220
I1449
sVextend
p221
I454
sVrolled
p222
I1117
sVwear
p223
I1452
sVpicking
p224
I952
sVroller
p225
I1118
sVimprove
p226
I651
sVfaced
p227
I465
sVprotect
p228
I1017
sVfaces
p229
I467
sVpulleys
p230
I1025
sVtone
p231
I1377
sVheight
p232
I616
sVkettlebells
p233
I720
sVwider
p234
I1459
sVloaded
p235
I792
sVbikin
p236
I157
sVabdominal
p237
I17
sVputs
p238
I1035
sVerect
p239
I437
sVquickly
p240
I1041
sVspread
p241
I1234
sVbasic
p242
I128
sVtoning
p243
I1379
sVdeeper
p244
I341
sVrelaxing
p245
I1077
sVlift
p246
I771
sVcatch
p247
I216
sVdeepen
p248
I340
sVquadricep
p249
I1038
sVsculpt
p250
I1145
sVair
p251
I51
sVlesser
p252
I760
sVnear
p253
I873
sVbodybar
p254
I168
sVstopping
p255
I1287
sVbalance
p256
I113
sVanchor
p257
I64
sVthroat
p258
I1353
sVcone
p259
I273
sVdescent
p260
I355
sVperform
p261
I946
sVmake
p262
I829
sVforehead
p263
I543
sVsplit
p264
I1229
sVincorrectly
p265
I661
sVplates
p266
I968
sVyour3
p267
I1477
sVfairly
p268
I469
sVhang
p269
I605
sVhand
p270
I596
sVcycle
p271
I329
sVkept
p272
I718
sVhopping
p273
I636
sVforceful
p274
I537
sVcontact
p275
I281
sVleft
p276
I754
sVjust
p277
I713
sVdownwards
p278
I391
sVrotated
p279
I1127
sVgravity
p280
I577
sVthumbs
p281
I1360
sVshuffle
p282
I1184
sVrotates
p283
I1128
sVprevious
p284
I1010
sVadding
p285
I34
sVfoot4
p286
I531
sVease
p287
I410
sVjefferson
p288
I703
sVeasy
p289
I414
sVdesire
p290
I357
sVbands
p291
I119
sVfeett
p292
I481
sVpossibly
p293
I989
sVboxes
p294
I176
sVinjuring
p295
I677
sVunique
p296
I1420
sVadvanced
p297
I45
sVapart
p298
I72
sVshoulder
p299
I1177
sVperforming
p300
I948
sVmanual
p301
I836
sVsteps
p302
I1279
sVbeneficial
p303
I141
sVright
p304
I1109
sVold
p305
I892
sVpeople
p306
I945
sVcollarbone
p307
I253
sVcrown
p308
I312
sVhanding
p309
I598
sVdead
p310
I333
sVpain
p311
I918
sVear
p312
I408
sVopposite
p313
I897
sVsqueeze
p314
I1244
sVcontinue
p315
I283
sVtreadmill
p316
I1394
sVcore
p317
I293
sVpeel
p318
I941
sVpose
p319
I977
sVillustration
p320
I644
sVshifting
p321
I1172
sVlosing
p322
I808
sVpost
p323
I990
sVbenches
p324
I137
sVlightheaded
p325
I778
sVribs
p326
I1107
sVslightly
p327
I1205
sVraised
p328
I1047
sVforcefully
p329
I538
sVraises
p330
I1048
sVbalanced
p331
I115
sVinces
p332
I654
sVsupport
p333
I1319
sVinitial
p334
I674
sVfight
p335
I484
sVwidth
p336
I1460
sVgrasping
p337
I576
sVway
p338
I1450
sVoverhand
p339
I909
sVlowest
p340
I815
sVhead
p341
I609
sVmedium
p342
I845
sVform
p343
I544
sVforming
p344
I545
sVlanding
p345
I736
sVbalance3
p346
I114
sVpowerfully
p347
I995
sVbuilds
p348
I194
sVversions
p349
I1440
sVprevents
p350
I1009
sVinside
p351
I681
sVattached
p352
I94
sVmaximum
p353
I841
sVstrengthening
p354
I1299
sVshin
p355
I1174
sVlowering
p356
I814
sVtoss
p357
I1382
sVoutstretched
p358
I905
sVfloor
p359
I511
sVloosening
p360
I806
sVsetting
p361
I1166
sVholding
p362
I632
sVroll
p363
I1116
sVpalms
p364
I922
sVfelt
p365
I482
sVrolling
p366
I1119
sVfaster
p367
I475
sVhyperextend
p368
I643
sVtime
p369
I1370
sVpush
p370
I1029
sVbackward
p371
I111
sVstacks
p372
I1255
sVrelieve
p373
I1079
sVfocus
p374
I520
sVquadriceps
p375
I1039
sVchair
p376
I223
sVinterlaced
p377
I687
sValigned
p378
I53
sVbicep4
p379
I149
sVbicycles
p380
I153
sVrhythm
p381
I1105
sVstabilizing
p382
I1251
sVdeltoids
p383
I350
sVindoor
p384
I669
sVjerk
p385
I704
sVstays
p386
I1274
sVlocked
p387
I796
sVminute
p388
I849
sVaggressively
p389
I47
sVbiceps
p390
I150
sVlevel
p391
I763
sVleave
p392
I752
sVlever
p393
I767
sVpec
p394
I936
sVdip
p395
I371
sVround
p396
I1133
sVprevent
p397
I1008
sVolympic
p398
I894
sVwork
p399
I1463
sVslower
p400
I1209
sVsecurely
p401
I1156
sVslowed
p402
I1208
sVtargets
p403
I1344
sVassistance
p404
I90
sVcontracted
p405
I287
sVgoes
p406
I566
sVfalling
p407
I470
sVcurled
p408
I321
sVsupporting
p409
I1321
sVburn
p410
I197
sVlakes
p411
I734
sVchange
p412
I225
sVbox
p413
I175
sVshift
p414
I1171
sVineffective
p415
I670
sVpillow
p416
I956
sVspurts
p417
I1237
sVadjustable
p418
I41
sVextra
p419
I461
sVprefer
p420
I1000
sVmarked
p421
I837
sVflexibility
p422
I505
sVrarely
p423
I1052
sVworking
p424
I1464
sVpositive
p425
I985
sVtightly
p426
I1366
sVanatomical
p427
I63
sVhandles
p428
I600
sVwood
p429
I1462
sVrefrain
p430
I1070
sVeffort
p431
I421
sVfly
p432
I516
sVrebounding
p433
I1060
sVjudo
p434
I709
sVavoiding
p435
I104
sVmodified
p436
I852
sVfollowing
p437
I528
sVmaking
p438
I831
sVfigure
p439
I485
sVlocks
p440
I798
sVchin
p441
I229
sVperformed
p442
I947
sVcardio
p443
I212
sVtilt
p444
I1368
sVsecured
p445
I1155
sVtill
p446
I1367
sVpins
p447
I958
sVoptimal
p448
I898
sVfirmly
p449
I496
sVstaying
p450
I1273
sVmat
p451
I840
sVspot
p452
I1232
sVdesigned
p453
I356
sVimproving
p454
I653
sVend
p455
I428
sVlifting
p456
I774
sVman
p457
I832
sVpulley
p458
I1024
sVstress
p459
I1302
sVneck
p460
I876
sVswitch
p461
I1333
sVtall
p462
I1339
sVpulled
p463
I1023
sVtypical
p464
I1411
sVpointed
p465
I973
sVmainly
p466
I824
sVflips
p467
I510
sVstability
p468
I1246
sVmotions
p469
I859
sVdiffers
p470
I368
sVheels3
p471
I615
sVthumb
p472
I1359
sVcurly
p473
I324
sVkeping
p474
I717
sVcurls
p475
I323
sVforms
p476
I546
sVplatform
p477
I969
sVoffers
p478
I891
sVmain
p479
I823
sVinstantly
p480
I682
sVfootpad
p481
I532
sVhop
p482
I635
sVtucked
p483
I1402
sVunderneath
p484
I1416
sVtouching
p485
I1386
sVhalf
p486
I590
sVmaintaining
p487
I827
sVwont
p488
I1461
sVexecute
p489
I443
sVfirming
p490
I495
sVstabilize
p491
I1248
sVdrop
p492
I399
sVbursts
p493
I199
sVbowling
p494
I174
sVindividually
p495
I667
sVsquare
p496
I1240
sVwrap
p497
I1470
sVunlock
p498
I1424
sVcatching
p499
I217
sVfingertips
p500
I491
sVspace
p501
I1221
sVlooking
p502
I801
sVreceiving
p503
I1062
sVcorrect
p504
I295
sVfacedown
p505
I466
sVsideways
p506
I1186
sVadvance
p507
I44
sVtraining
p508
I1389
sVbackside
p509
I110
sVtransition
p510
I1391
sVcalories
p511
I208
sVmotion
p512
I858
sVthing
p513
I1352
sVplace
p514
I959
sVswing
p515
I1331
sVhipbone
p516
I625
sVspecifically
p517
I1224
sVsuspended
p518
I1326
sVopen
p519
I895
sVsize
p520
I1196
sVclanking
p521
I235
sVlittle
p522
I790
sVwaist
p523
I1443
sVplank
p524
I965
sVgives
p525
I563
sVeyes
p526
I462
sVhug
p527
I639
sVsnatch
p528
I1216
sVpadding
p529
I916
sVbutt
p530
I200
sVattempt
p531
I99
sVholder
p532
I630
sV11
p533
I2
sV10
p534
I1
sV12
p535
I3
sV15
p536
I4
sV16
p537
I5
sV18
p538
I6
sVpre
p539
I998
sVturned
p540
I1405
sVhands2
p541
I603
sVcrossover
p542
I309
sVslam
p543
I1202
sVdeadlifts
p544
I335
sVsuperman
p545
I1315
sVsquat
p546
I1241
sVisolate
p547
I699
sVequipment
p548
I436
sVsquad
p549
I1238
sVswitching
p550
I1334
sVbutterfly
p551
I201
sVbegin
p552
I130
sVsure
p553
I1323
sVstraightening
p554
I1293
sVnormal
p555
I882
sVpair
p556
I920
sVknee
p557
I725
sVcuban
p558
I317
sVespecially
p559
I438
sVsteady
p560
I1276
sVdrive
p561
I396
sVtouche
p562
I1384
sVtypically
p563
I1412
sVsculpted
p564
I1146
sVcobra
p565
I251
sVelevate
p566
I424
sVhack
p567
I589
sVcorner
p568
I294
sVground
p569
I584
sVslow
p570
I1207
sVstair
p571
I1257
sVromanian
p572
I1123
sVgoing
p573
I567
sVvary
p574
I1438
sVreps
p575
I1089
sVsoon
p576
I1220
sVnearly
p577
I874
sVlighter
p578
I777
sVsettings
p579
I1167
sVmorning
p580
I857
sVfinishing
p581
I493
sVworrying
p582
I1468
sVseat
p583
I1148
sVsport
p584
I1230
sVways
p585
I1451
sVsites
p586
I1194
sVoutside
p587
I904
sVvertical
p588
I1441
sVdome
p589
I384
sVconcentrate
p590
I267
sVrapidly
p591
I1051
sVcome
p592
I257
sVtuck
p593
I1401
sVregion
p594
I1071
sVrecumbent
p595
I1067
sVcontract
p596
I286
sVblasts
p597
I162
sVconcentrates
p598
I268
sVholders
p599
I631
sVcomes
p600
I258
sVstretches
p601
I1305
sV60
p602
I13
sVpole
p603
I975
sVstretched
p604
I1304
sVlearning
p605
I751
sVcombines
p606
I256
sVcycling
p607
I330
sVstretch
p608
I1303
sVforearm
p609
I541
sVbreath
p610
I180
sVdirection
p611
I374
sVfours
p612
I551
sVrasting
p613
I1053
sVtightened
p614
I1364
sVexternal
p615
I459
sVcareful
p616
I214
sVpaying
p617
I934
sVstacked
p618
I1254
sVdeveloping
p619
I360
sVstraighten
p620
I1291
sVarnold
p621
I85
sVtips1
p622
I1373
sVpinky
p623
I957
sVstrain
p624
I1294
sVpressing
p625
I1006
sVpushdown
p626
I1030
sVreturn
p627
I1102
sVmovements
p628
I864
sVdifferent
p629
I366
sVdevelop
p630
I359
sVlocking
p631
I797
sVshifts
p632
I1173
sVpad
p633
I914
sVpushup
p634
I1034
sVworkout
p635
I1465
sVfinish
p636
I492
sVclosest
p637
I250
sVsquatted
p638
I1242
sVassist
p639
I89
sVdriven
p640
I397
sVrunning
p641
I1138
sVedges
p642
I416
sVunmanageable
p643
I1425
sVclimbing
p644
I244
sVflexed
p645
I504
sVinhalation
p646
I671
sVeasing
p647
I413
sVrest
p648
I1094
sVaspect
p649
I88
sVtouch
p650
I1383
sVspeed
p651
I1225
sVguides
p652
I587
sVhalfway
p653
I591
sVdumbbells1
p654
I405
sVgrounded
p655
I585
sVthighs1
p656
I1351
sVpile
p657
I955
sVpossible3
p658
I987
sVheavier
p659
I611
sVmomentum
p660
I855
sVgrip
p661
I580
sVrepetitions
p662
I1088
sVsumo
p663
I1314
sVusing
p664
I1434
sVblankets
p665
I161
sVrear
p666
I1059
sVvertically
p667
I1442
sVbarbells
p668
I122
sVtowel
p669
I1387
sVreduces
p670
I1069
sVfacing
p671
I468
sVbenefit
p672
I142
sVthighs
p673
I1350
sVdownward
p674
I390
sVstationary
p675
I1271
sVclap
p676
I236
sVduration
p677
I407
sVascent
p678
I86
sVpilates
p679
I954
sVstops
p680
I1288
sVmoon
p681
I856
sVprovides
p682
I1019
sVbiased
p683
I147
sVpower
p684
I993
sVseconds
p685
I1151
sVthrow
p686
I1354
sVsustain
p687
I1327
sVchop
p688
I231
sVstand
p689
I1260
sValigning
p690
I54
sVfootrests
p691
I534
sVroad
p692
I1113
sVlands
p693
I737
sVcurling
p694
I322
sVburning
p695
I198
sVspreading
p696
I1235
sVlegged
p697
I757
sVvariable
p698
I1436
sVattaching
p699
I95
sVfast
p700
I474
sVprepare
p701
I1003
sVarea
p702
I79
sVaren
p703
I80
sVstart
p704
I1265
sVlow
p705
I811
sVlot
p706
I810
sVcomplete
p707
I264
sVreduce
p708
I1068
sVbeginners
p709
I131
sVstrenuous
p710
I1301
sVshrugs
p711
I1183
sVtrying
p712
I1400
sVyou2
p713
I1476
sVpull
p714
I1021
sVrush
p715
I1139
sVtoner
p716
I1378
sVgrasp
p717
I574
sVisolating
p718
I701
sVbuilders
p719
I192
sVgone
p720
I568
sVab
p721
I15
sVmoved
p722
I862
sVshoulders
p723
I1179
sVdeep
p724
I339
sVgrasped
p725
I575
sVmoves
p726
I865
sVcables
p727
I205
sVincorrect
p728
I660
sVyoga
p729
I1475
sVtight
p730
I1361
sVforcing
p731
I540
sVgaining
p732
I557
sVbriefly
p733
I185
sVtailbone
p734
I1337
sVimportant
p735
I648
sVpeak
p736
I935
sVsuited
p737
I1313
sVbuilding
p738
I193
sVunload
p739
I1423
sVcurve
p740
I326
sVeverted
p741
I441
sVpassed
p742
I929
sVmass
p743
I838
sVstarting
p744
I1268
sVoriginal
p745
I901
sVlevers
p746
I769
sVexternally
p747
I460
sVlace
p748
I731
sVpointing
p749
I974
sVexecuting
p750
I444
sVcambered
p751
I211
sVfollow
p752
I526
sVimproperly
p753
I650
sVflattening
p754
I502
sVactivities
p755
I30
sVlifters
p756
I773
sVreturning
p757
I1103
sVfar
p758
I472
sVgironda
p759
I562
sVfat
p760
I476
sVresults
p761
I1099
sVclench
p762
I241
sVfrankenstein
p763
I552
sVdifference
p764
I365
sVcondition
p765
I271
sVcable
p766
I204
sVlaying
p767
I745
sVlarge
p768
I738
sVadjust
p769
I40
sVsmall
p770
I1211
sVpass
p771
I928
sVcentering
p772
I222
sVclock
p773
I245
sVsection
p774
I1153
sVabs
p775
I24
sVadduction
p776
I37
sVrow
p777
I1135
sVracing
p778
I1042
sVmovement
p779
I863
sVtoes
p780
I1376
sVstrong
p781
I1307
sVahead
p782
I49
sVstretching
p783
I1306
sVallows
p784
I57
sVkettlebell
p785
I719
sVpick
p786
I951
sVnarrow
p787
I872
sVfollowed
p788
I527
sVask
p789
I87
sVbungy
p790
I196
sVarmed
p791
I82
sVselect
p792
I1158
sVinjure
p793
I675
sVcontains
p794
I282
sVfinally
p795
I487
sVinjury
p796
I678
sVpossible
p797
I986
sVoutwards
p798
I907
sVflat
p799
I501
sVdiamond
p800
I364
sVgrabbing
p801
I572
sVpectorals
p802
I939
sVstick
p803
I1281
sVknown
p804
I730
sVkeeping
p805
I714
sVmiddle
p806
I847
sVlearn
p807
I750
sVchallenging
p808
I224
sVpushes
p809
I1032
sVjoints
p810
I708
sVpushed
p811
I1031
sVattain
p812
I98
sVaxis
p813
I106
sVheadrest
p814
I610
sVtries
p815
I1398
sVplane
p816
I964
sVblood
p817
I166
sVcoming
p818
I261
sVhorizontal
p819
I637
sVconcentrating
p820
I269
sVflutter
p821
I515
sVfo
p822
I519
sVshort
p823
I1176
sVtwisting
p824
I1409
sVinline
p825
I679
sVhelp
p826
I618
sVadduct
p827
I36
sVoblique
p828
I887
sVmajor
p829
I828
sVheld
p830
I617
sVcardiovascular
p831
I213
sV24
p832
I8
sV25
p833
I9
sV20
p834
I7
sVlats
p835
I743
sVinward
p836
I695
sVlateral
p837
I741
sVactually
p838
I32
sVsoles
p839
I1218
sVgood
p840
I569
sVsomebody
p841
I1219
sVfoot
p842
I530
sVbigger
p843
I155
sVeasily
p844
I412
sVfully
p845
I554
sVcourses
p846
I299
sVpositions
p847
I983
sVrepeating
p848
I1087
sVdifficult
p849
I369
sVnotes
p850
I884
sVheavy
p851
I612
sVdumbbells
p852
I404
sVtilted
p853
I1369
sVweight
p854
I1454
sVhard
p855
I607
sVpositioned
p856
I981
sVelbows
p857
I423
sVengaging
p858
I432
sVextended
p859
I455
sVconnect
p860
I275
sVdorsiflex
p861
I387
sVtry
p862
I1399
sVsafety
p863
I1143
sVpasses
p864
I930
sVdifficulty
p865
I370
sVbase
p866
I126
sVconditioning
p867
I272
sVstraightened
p868
I1292
sVdefinition
p869
I345
sVbenefits
p870
I143
sVpositioning
p871
I982
sVmuscles3
p872
I871
sVmuscle1
p873
I868
sVmuscle2
p874
I869
sVutilizes
p875
I1435
sVupper
p876
I1426
sVfeel
p877
I477
sVnumber
p878
I885
sVfeet
p879
I480
sVchanging
p880
I226
sVobliques
p881
I888
sVquads
p882
I1040
sVabdominals4
p883
I19
sVleverage
p884
I768
sVtate
p885
I1345
sVleading
p886
I747
sVsmoother
p887
I1214
sVstork
p888
I1289
sVstation
p889
I1270
sVpains
p890
I919
sVmuscles
p891
I870
sVoption
p892
I899
sVforward3
p893
I550
sVforward2
p894
I549
sVfocusing
p895
I523
sVtraps
p896
I1393
sVste
p897
I1275
sVfold
p898
I524
sVgotten
p899
I570
sVcuff
p900
I318
sVoutdoors
p901
I902
sVmotivation
p902
I860
sVstrengthen
p903
I1298
sValongside
p904
I58
sVtucking
p905
I1403
sVconcentration
p906
I270
sVlie
p907
I770
sVdepending
p908
I352
sVlin
p909
I786
sVlaterally
p910
I742
sVlifts
p911
I775
sVbuild
p912
I191
sVfinding
p913
I488
sVbrace
p914
I178
sVtool
p915
I1380
sVplay
p916
I971
sVadded
p917
I33
sVreach
p918
I1054
sVsignificant
p919
I1187
sVsturdy
p920
I1311
sVcover
p921
I300
sVclean
p922
I240
sVweigh
p923
I1453
sVhips
p924
I626
sVhyper
p925
I642
sVflexors
p926
I508
sVhugging
p927
I640
sVbarbell
p928
I121
sVcarefully
p929
I215
sVfont
p930
I529
sVimpact
p931
I647
sVsecuring
p932
I1157
sVdistributed
p933
I378
sVcircle
p934
I232
sVhip
p935
I624
sVhit
p936
I627
sVfeels
p937
I479
sVexplosively
p938
I453
sVclosely
p939
I248
sVworkouts
p940
I1466
sVremove
p941
I1083
sVcommon
p942
I262
sVactivity
p943
I31
sVbars
p944
I125
sVset
p945
I1164
sVthrowing
p946
I1355
sVindividual
p947
I666
sVbard
p948
I123
sVclose
p949
I247
sVoutward
p950
I906
sVcrunching
p951
I315
sVknees
p952
I728
sVstance
p953
I1259
sVcurrently
p954
I325
sVkneeling
p955
I727
sVtighten3
p956
I1363
sVkneel
p957
I726
sVavailable
p958
I102
sVcreating
p959
I303
sVtargeted
p960
I1342
sVsole
p961
I1217
sVreverse
p962
I1104
sVbarely
p963
I124
sVroman
p964
I1122
sVimproves
p965
I652
sVlet
p966
I761
sVpendulum
p967
I944
sVpoint
p968
I972
sVsimple
p969
I1189
sVsky
p970
I1200
sVimproper
p971
I649
sVclimbers
p972
I243
sVbelt
p973
I134
sVdecline
p974
I338
sVraise
p975
I1046
sVcreate
p976
I301
sVdropping
p977
I401
sVskyward
p978
I1201
sVfirm
p979
I494
sVresting
p980
I1096
sVrocking
p981
I1115
sVhandling
p982
I601
sVlook
p983
I800
sVbelly
p984
I133
sVstraight
p985
I1290
sVstabilized
p986
I1249
sVrope
p987
I1125
sVpace
p988
I912
sVpressed
p989
I1005
sVleaning
p990
I749
sVloop
p991
I802
sVpack
p992
I913
sVlarger
p993
I739
sVarching
p994
I77
sVlevel2
p995
I764
sVobstacle
p996
I889
sVlevel5
p997
I765
sVloosened
p998
I805
sVready
p999
I1058
sVrib
p1000
I1106
sVelevated
p1001
I425
sVhigher
p1002
I622
sVdevelopment
p1003
I361
sVused
p1004
I1432
sVtower
p1005
I1388
sVmountain
p1006
I861
sVmoment
p1007
I853
sVlevels
p1008
I766
sVmoving
p1009
I866
sVstack
p1010
I1253
sVlacrosse
p1011
I732
sVlower
p1012
I812
sVdouble
p1013
I388
sVperson
p1014
I950
sVfootpads
p1015
I533
sVedge
p1016
I415
sVself
p1017
I1160
sVclasped
p1018
I238
sVpowering
p1019
I996
sVshape
p1020
I1168
sVintervals
p1021
I691
sValternative
p1022
I62
sVinjuries
p1023
I676
sVletting
p1024
I762
sVloading
p1025
I793
sValternate
p1026
I59
sVrecommended
p1027
I1065
sVinternal
p1028
I690
sVremaining
p1029
I1081
sVbig
p1030
I154
sVbit
p1031
I158
sVabduct
p1032
I20
sVisolates
p1033
I700
sVrotate
p1034
I1126
sVsemi
p1035
I1161
sVshaped
p1036
I1169
sVspine
p1037
I1227
sVindividuals
p1038
I668
sVessential
p1039
I439
sVpronated
p1040
I1013
sVbounce
p1041
I172
sVpalm
p1042
I921
sVaccelerate
p1043
I27
sVmirror
p1044
I851
sVsprint
p1045
I1236
sVwrists
p1046
I1474
sVaerobic
p1047
I46
sVrehabilitating
p1048
I1073
sVconnecting
p1049
I277
sVnose
p1050
I883
sVjumps
p1051
I712
sVcontinuing
p1052
I284
sVperpendicular
p1053
I949
sVstep
p1054
I1277
sVintense
p1055
I685
sVrange
p1056
I1050
sVshins
p1057
I1175
sVforearms
p1058
I542
sVblock
p1059
I164
sVsupermans
p1060
I1316
sVanterior
p1061
I71
sVprimarily
p1062
I1011
sVsports
p1063
I1231
sVrolls
p1064
I1121
sVrows
p1065
I1137
sVplacing
p1066
I963
sVlive
p1067
I791
sVlong
p1068
I799
sVforward
p1069
I548
sVdelts
p1070
I351
sVinches
p1071
I656
sVrelaxed
p1072
I1076
sVproperly
p1073
I1016
sVflexor
p1074
I507
sVupright
p1075
I1427
sVline
p1076
I787
sVraising
p1077
I1049
sVskull
p1078
I1199
sVcontinuously
p1079
I285
sVsimilar
p1080
I1188
sVconstant
p1081
I280
sVdoesn
p1082
I381
sVlye
p1083
I819
sVsingle
p1084
I1192
sVbicep
p1085
I148
sVcurl
p1086
I320
sVendurance
p1087
I430
sVbacks
p1088
I109
sVretract
p1089
I1100
sVnice
p1090
I881
sVdraw
p1091
I393
sVcrouching
p1092
I311
sVlunging
p1093
I817
sVhelping
p1094
I619
sVdrag
p1095
I392
sVrested
p1096
I1095
sVallowing
p1097
I56
sVsides
p1098
I1185
sVstructure
p1099
I1309
sVfurthest
p1100
I555
sVland
p1101
I735
sVback4
p1102
I107
sVrequired
p1103
I1090
sVdepth
p1104
I353
sVweights
p1105
I1456
sVlying
p1106
I820
sVrequires
p1107
I1091
sVhaving
p1108
I608
sVevenly
p1109
I440
sVresistance
p1110
I1092
sVclassic
p1111
I239
sVdumbbell
p1112
I403
sVposition4
p1113
I980
sVpulldown
p1114
I1022
sVsqueezing
p1115
I1245
sVhelps
p1116
I620
sVstable
p1117
I1252
sVbreathing
p1118
I182
sVballs
p1119
I117
sVputting
p1120
I1036
sVposture
p1121
I992
sVentire
p1122
I433
sVstiff
p1123
I1282
sVexperiencing
p1124
I450
sVbutton
p1125
I203
sVsupine
p1126
I1318
sVrack
p1127
I1043
sVgripping
p1128
I581
sVrivers
p1129
I1112
sVjump
p1130
I710
sVbodybuilding
p1131
I170
sVuncomfortable
p1132
I1413
sVretracting
p1133
I1101
sVassisted
p1134
I91
sVreaching
p1135
I1057
sVexercise
p1136
I445
sVbody
p1137
I167
sVfocuses
p1138
I522
sVdegree
p1139
I346
sVleg
p1140
I755
sVbench2
p1141
I136
sVpushing
p1142
I1033
sVspacing
p1143
I1222
sVdesired
p1144
I358
sVfocused
p1145
I521
sVsafer
p1146
I1142
sVgreat
p1147
I578
sVengage
p1148
I431
sVreceive
p1149
I1061
sV30
p1150
I10
sV35
p1151
I11
sVleaving
p1152
I753
sVarmpit
p1153
I83
sVclimb
p1154
I242
sVmakes
p1155
I830
sVinvolves
p1156
I694
sVstabilization
p1157
I1247
sVmanage
p1158
I833
sVclockwise
p1159
I246
sVstaple
p1160
I1263
sVstanding
p1161
I1262
sVuse
p1162
I1431
sVpelvic
p1163
I942
sVyourcalves
p1164
I1478
sVcheeks
p1165
I227
sVstarted
p1166
I1267
sVinclined
p1167
I658
sVtriceps
p1168
I1396
sVcrosses
p1169
I307
sVpanted
p1170
I923
sVarches
p1171
I76
sVcrossed
p1172
I306
sVstabilizer
p1173
I1250
sVdropped
p1174
I400
sVcontrol
p1175
I290
sVbent
p1176
I144
sVprocess
p1177
I1012
sVlock
p1178
I795
sVhigh
p1179
I621
sVeffectively
p1180
I419
sVpulling
p1181
I1027
sVbend
p1182
I138
sVslip
p1183
I1206
sVpelvis
p1184
I943
sVsit
p1185
I1193
sVbungee
p1186
I195
sVboxing
p1187
I177
sVlocated
p1188
I794
sVattachment
p1189
I96
sVelliptical
p1190
I427
sVinstead
p1191
I683
sVcuffed
p1192
I319
sVcircular
p1193
I234
sVtension
p1194
I1346
sVblocks
p1195
I165
sVglute
p1196
I564
sVtact
p1197
I1336
sVdiscomfort
p1198
I376
sVdeltoid
p1199
I349
sVfits
p1200
I499
sVracks
p1201
I1045
sVlight
p1202
I776
sVcounter
p1203
I298
sVlines
p1204
I789
sVallow
p1205
I55
sVlined
p1206
I788
sVholds
p1207
I633
sVthigh
p1208
I1349
sVtiptoes
p1209
I1374
sVlooping
p1210
I803
sVstoppers
p1211
I1286
sVhand3
p1212
I597
sVbiceps4
p1213
I151
sVhorizontally
p1214
I638
sVouter
p1215
I903
sVbroom
p1216
I189
sVpullover
p1217
I1028
sVsquatting
p1218
I1243
sVdegrees
p1219
I347
sVimbalance
p1220
I645
sVdefining
p1221
I344
sVflex
p1222
I503
sVgreater
p1223
I579
sVpractice
p1224
I997
sVdock
p1225
I379
sVhands
p1226
I602
sVrotation
p1227
I1130
sVcage
p1228
I206
sVsternum
p1229
I1280
sVslide
p1230
I1203
sVtrap
p1231
I1392
sVcrossing
p1232
I308
sVbeneath
p1233
I140
sVupward
p1234
I1429
sVankles
p1235
I70
sVdoing
p1236
I383
sVinverted
p1237
I692
sVmeasure
p1238
I843
sVseparating
p1239
I1163
sVflys
p1240
I518
sVrep
p1241
I1084
sVcause
p1242
I218
sVsculpting
p1243
I1147
sVattachment3
p1244
I97
sVdiagonal
p1245
I362
sVinhaling
p1246
I673
sVabductor
p1247
I21
sVthrust
p1248
I1356
sVmaintaing
p1249
I826
sVbackwards
p1250
I112
sVkees
p1251
I716
sVtimes
p1252
I1371
sVlength
p1253
I759
sVwrist
p1254
I1473
sVstaggered
p1255
I1256
sVpowerful
p1256
I994
sVreaches
p1257
I1056
sVhurdle
p1258
I641
sVreached
p1259
I1055
sVbraces
p1260
I179
sVattach
p1261
I93
sVpositing
p1262
I978
sVankle
p1263
I69
sVfinal
p1264
I486
sVprone
p1265
I1014
sVagility
p1266
I48
sVdumbells
p1267
I406
sVshelf
p1268
I1170
sVcompleted
p1269
I265
sVsimulate
p1270
I1191
sVremember
p1271
I1082
sVbuttocks
p1272
I202
sVkickback
p1273
I723
sVlimiting
p1274
I784
sVarc
p1275
I74
sVstraps
p1276
I1296
sVlightly
p1277
I779
sVgently
p1278
I559
sVcurves
p1279
I328
sVcomfortable
p1280
I259
sVcomfortably
p1281
I260
sVneed
p1282
I877
sVcurved
p1283
I327
sVangle
p1284
I65
sVable
p1285
I23
sVmid
p1286
I846
sVarm
p1287
I81
sVpectoral
p1288
I938
sVgrounding
p1289
I586
sVhandstring
p1290
I604
sVblades
p1291
I160
sVunhunch
p1292
I1418
sVunless
p1293
I1422
sVcombat
p1294
I254
sVpausing
p1295
I933
sVconnected
p1296
I276
sVrollout
p1297
I1120
sVclasp
p1298
I237
sVplacement
p1299
I961
sVstronger
p1300
I1308
sVneutral
p1301
I879
sVface
p1302
I464
sVdeeply2
p1303
I342
sVabsorbing
p1304
I26
sVsupported
p1305
I1320
sVrotating
p1306
I1129
sVbring
p1307
I186
sVrough
p1308
I1132
sVpause
p1309
I932
sVbased
p1310
I127
sVjaw
p1311
I702
sVplanted
p1312
I966
sVriding
p1313
I1108
sVachieve
p1314
I29
sVmeant
p1315
I842
sVhandle
p1316
I599
sVfamiliar
p1317
I471
sVoverall
p1318
I908
sVarcing
p1319
I78
sVjoint
p1320
I707
sVwhilst
p1321
I1457
sVgrap
p1322
I573
sVabdominals
p1323
I18
sVtightening
p1324
I1365
sVgrab
p1325
I571
sVfixed
p1326
I500
sVfarthest
p1327
I473
sVracked
p1328
I1044
sVterrain
p1329
I1347
sVintensity
p1330
I686
sVspotter
p1331
I1233
sVcloser
p1332
I249
sVwalking
p1333
I1445
sVpulleys4
p1334
I1026
sVcorrectly
p1335
I296
sVroutine
p1336
I1134
sVends
p1337
I429
sVattention
p1338
I101
sVexplosive
p1339
I452
sVability
p1340
I22
sVopening
p1341
I896
sVlimbs
p1342
I782
sVkicking
p1343
I724
sVadductor
p1344
I38
sVkey
p1345
I721
sVsquads
p1346
I1239
sVhits
p1347
I628
sVlimits
p1348
I785
sVtorso
p1349
I1381
sVtaking
p1350
I1338
sVequal
p1351
I434
sVpassing
p1352
I931
sVsafely
p1353
I1141
sVadjusted
p1354
I42
sVshoulder4
p1355
I1178
sVwall
p1356
I1446
sVwalk
p1357
I1444
sVangle3
p1358
I66
sVzottman
p1359
I1480
sVtable
p1360
I1335
sVinhale
p1361
I672
sVdecent
p1362
I336
sVslowly
p1363
I1210
sVdefine
p1364
I343
sVangled
p1365
I67
sVheels
p1366
I614
sVcontrolled
p1367
I291
sVtricep
p1368
I1395
sVthrusting
p1369
I1357
sVangles
p1370
I68
sValign
p1371
I52
sVrotator
p1372
I1131
sVgroin
p1373
I583
sVsurface
p1374
I1324
sVswinging
p1375
I1332
sVpartner
p1376
I927
sVdecine
p1377
I337
sVcrosspiece
p1378
I310
sVcross
p1379
I305
sVinch
p1380
I655
sVgets
p1381
I560
sVhammering
p1382
I593
sVtighten
p1383
I1362
sVball
p1384
I116
sVabsorb
p1385
I25
sVeffect
p1386
I417
sVquad
p1387
I1037
sVpedal
p1388
I940
sVcollar
p1389
I252
sVexpand
p1390
I449
sVinsure
p1391
I684
sVcenter
p1392
I220
sVflexing
p1393
I506
sVsets
p1394
I1165
sVposition
p1395
I979
sVmuscle
p1396
I867
sVdrawing
p1397
I394
sVinterlocked
p1398
I688
sVbending
p1399
I139
sVtaller
p1400
I1340
sVmoments
p1401
I854
sVseconds4
p1402
I1152
sVcoordination
p1403
I292
sVfield
p1404
I483
sVbell
p1405
I132
sVsmith
p1406
I1212
sVbench
p1407
I135
sVextends
p1408
I457
sVkick
p1409
I722
sVincreased
p1410
I663
sVincreases
p1411
I664
sVknow
p1412
I729
sVpress
p1413
I1004
sVimmediately
p1414
I646
sVcrusher
p1415
I316
sVloss
p1416
I809
sVnecessary
p1417
I875
sVlike
p1418
I780
sVcriss
p1419
I304
sVaccelerating
p1420
I28
sVlose
p1421
I807
sVworks
p1422
I1467
sVheel
p1423
I613
sVsmoothly
p1424
I1215
sVpostion
p1425
I991
sVplatforms
p1426
I970
sVproper
p1427
I1015
sVshrug
p1428
I1181
sVlead
p1429
I746
sVavoid
p1430
I103
sVlean
p1431
I748
sVdoes
p1432
I380
sVassuming
p1433
I92
sVslight
p1434
I1204
sVdangling
p1435
I332
sVselecting
p1436
I1159
sVrock
p1437
I1114
sVpressure
p1438
I1007
sVtargeting
p1439
I1343
sVpike
p1440
I953
sVincline
p1441
I657
sVextension
p1442
I458
sVgetting
p1443
I561
sVswimming
p1444
I1330
sVequally
p1445
I435
sVweighted
p1446
I1455
sVadditional
p1447
I35
sVtransfer
p1448
I1390
sVstamina
p1449
I1258
sVflye
p1450
I517
sVinner
p1451
I680
sVbackhand
p1452
I108
sVoverlapping
p1453
I911
sVrepeated
p1454
I1086
sVlowered
p1455
I813
sVgain
p1456
I556
sVglutes
p1457
I565
sVhighest
p1458
I623
sVpartially
p1459
I926
sVcount
p1460
I297
sVplaces
p1461
I962
sVsmooth
p1462
I1213
sVflip
p1463
I509
sVplaced
p1464
I960
sVlimit
p1465
I783
sVminutes
p1466
I850
sVstrengthens
p1467
I1300
sVskating
p1468
I1197
sVdual
p1469
I402
sVez
p1470
I463
sVtwist
p1471
I1407
sVcompared
p1472
I263
sV45
p1473
I12
sVspecial
p1474
I1223
sVtricps
p1475
I1397
sVrepeat
p1476
I1085
sVstar
p1477
I1264
sVvariation
p1478
I1437
sVstay
p1479
I1272
sVupwards
p1480
I1430
sVportion
p1481
I976
s.