(dp0
Vquads
p1
I16
sVbiceps
p2
I1
sVcalves
p3
I2
sVdelts
p4
I5
sVlats
p5
I10
sVforearm
p6
I6
sVupper
p7
I20
sVobliques
p8
I14
sVshoulders
p9
I17
sVhamstrings
p10
I8
sVmiddle
p11
I13
sVlower
p12
I12
sVchest
p13
I4
sVabs
p14
I0
sVinner
p15
I9
sVtriceps
p16
I19
sVglutes
p17
I7
sVouter
p18
I15
sVlegs
p19
I11
sVcardio
p20
I3
sVtraps
p21
I18
s.