(dp0
Vexternally
p1
I513
sVhanging
p2
I670
sVconsists
p3
I320
sVoldest
p4
I988
sVincrease
p5
I733
sVbike
p6
I191
sVunder
p7
I1562
sVinwards
p8
I768
sVworth
p9
I1635
sValternating
p10
I72
sVrisk
p11
I1222
sVrise
p12
I1221
sVdelt
p13
I390
sVbringing
p14
I224
sVinterlocking
p15
I760
sVschool
p16
I1256
sVskills
p17
I1314
sVsupports
p18
I1443
sVups
p19
I1579
sVbicycle
p20
I187
sVconsistent
p21
I319
sVpubic
p22
I1128
sVdirect
p23
I415
sVpreacher
p24
I1107
sVsurrounding
p25
I1446
sVsecond
p26
I1262
sVparter
p27
I1032
sVsustaining
p28
I1449
sVshoulders3
p29
I1295
sVshrugging
p30
I1297
sVmachines
p31
I901
sVeven
p32
I491
sVaim
p33
I57
sVrelieving
p34
I1191
sVsemicircular
p35
I1275
sVfingers
p36
I545
sVabove
p37
I25
sVnew
p38
I968
sVtips
p39
I1511
sVincreasing
p40
I736
sVcrunch
p41
I355
sVchins
p42
I271
sVnever
p43
I967
sVwrapping
p44
I1639
sVcontraction
p45
I330
sVrests
p46
I1208
sVcompletely
p47
I307
sVapproaches
p48
I90
sVzercher
p49
I1650
sVmilitary
p50
I930
sVsecure
p51
I1266
sVstrap
p52
I1415
sVbrought
p53
I227
sVwould
p54
I1636
sVarms
p55
I102
sVoverhead
p56
I1015
sVrecommend
p57
I1175
sVtype
p58
I1556
sVuntil
p59
I1574
sVcalf
p60
I246
sVbreathe
p61
I218
sVlungs
p62
I897
sVrelax
p63
I1186
sVsuccessful
p64
I1432
sVbrings
p65
I225
sVlunge
p66
I895
sVbreaths
p67
I220
sVexcellent
p68
I494
sV90
p69
I14
sVhold
p70
I696
sVjoin
p71
I781
sVroom
p72
I1235
sVblade
p73
I194
sVelbow
p74
I471
sVexhale
p75
I500
sVfists
p76
I553
sVloosen
p77
I883
sVunilateral
p78
I1567
sVswinging
p79
I1453
sVgive
p80
I625
sVinvolve
p81
I765
sVwant
p82
I1599
sVtimes
p83
I1510
sVcalve
p84
I248
sVend
p85
I478
sVrecovery
p86
I1177
sVturn
p87
I1549
sVprovide
p88
I1126
sVsitting
p89
I1311
sVdamage
p90
I373
sVmachine
p91
I900
sVhow
p92
I706
sVadjacent
p93
I42
sVoceans
p94
I982
sVafter
p95
I50
sVabdomen
p96
I16
sVunderhand
p97
I1563
sVbefor
p98
I156
sVjumping
p99
I786
sVlay
p100
I821
sVlat
p101
I817
sVarch
p102
I92
sVparallel
p103
I1030
sVcalves
p104
I249
sVeffective
p105
I465
sVhamstrings
p106
I659
sVmaintain
p107
I904
sVkeeps
p108
I791
sVorder
p109
I1001
sVover
p110
I1012
sVuncross
p111
I1561
sVdown4
p112
I434
sVunderside
p113
I1565
sVdiagonally
p114
I405
sVbefore
p115
I157
sVforehead
p116
I600
sVmanageable
p117
I913
sVbetter
p118
I179
sVdifferently
p119
I409
sVeasier
p120
I458
sVdescend
p121
I396
sVthen
p122
I1477
sVthem
p123
I1475
sVcombination
p124
I296
sVjerking
p125
I780
sVexhaling
p126
I501
sVsafe
p127
I1251
sVband
p128
I140
sVthey
p129
I1480
sVyourself
p130
I1649
sVswaying
p131
I1450
sValternately
p132
I71
sVexplode
p133
I504
sVfitness
p134
I554
sVside
p135
I1300
sVbone
p136
I206
sVlifted
p137
I851
sVsuspended
p138
I1447
sVspider
p139
I1345
sVcontracting
p140
I329
sVpositiontips
p141
I1092
sVby
p142
I242
sVdriving
p143
I443
sVstart5
p144
I1385
sVre
p145
I1164
sVlaid
p146
I809
sVmedicine
p147
I925
sVforth
p148
I604
sVturning
p149
I1551
sVgammer
p150
I619
sVfree
p151
I610
sVstandard
p152
I1380
sVstruggle
p153
I1430
sVwanted
p154
I1600
sVincorporates
p155
I730
sVstarts
p156
I1388
sVdeadlift
p157
I376
sVcreates
p158
I344
sViso
p159
I771
sVuses
p160
I1584
sVonto
p161
I994
sVhamstring
p162
I658
sVhook
p163
I701
sVspinning
p164
I1347
sVanother
p165
I85
sVforce
p166
I592
sVtheir
p167
I1474
sVtop
p168
I1523
sVcrunches
p169
I356
sVtwisted
p170
I1553
sVneeded
p171
I965
sVmaster
p172
I919
sVtoo
p173
I1521
sVlegs
p174
I836
sVtoe
p175
I1515
sVceiling
p176
I260
sVcentered
p177
I262
sVbouncing
p178
I210
sVgym
p179
I652
sVwrapped
p180
I1638
sVfloor2
p181
I568
sVfloor3
p182
I569
sVdistance
p183
I419
sVreclining
p184
I1174
sVtarget
p185
I1464
sVconforms
p186
I315
sVlikely
p187
I860
sVseated
p188
I1261
sVpreparation
p189
I1110
sViron
p190
I769
sVfeeling
p191
I531
sVleg5
p192
I834
sVbridge
p193
I221
sVdonkey
p194
I430
sVelevating
p195
I475
sVpecs
p196
I1044
sVmanner
p197
I914
sVstomach
p198
I1404
sVrelatively
p199
I1185
sVforced
p200
I593
sVstrength
p201
I1417
sVrecommended
p202
I1176
sVforces
p203
I596
sVgrips
p204
I646
sVeffectiveness
p205
I467
sVcircles
p206
I274
sVstirrup
p207
I1403
sVthough
p208
I1487
sVobject
p209
I978
sVextending
p210
I509
sVregular
p211
I1183
sVexercises
p212
I499
sVdon
p213
I428
sVflow
p214
I570
sVdog
p215
I425
sVbodybuilder
p216
I204
sVpadded
p217
I1021
sVattempts
p218
I121
sVstepping
p219
I1397
sVpossibletips
p220
I1096
sVtouches
p221
I1528
sVresisting
p222
I1204
sVfolded
p223
I581
sVtheme
p224
I1476
sVversion
p225
I1590
sVplate
p226
I1075
sVwide
p227
I1620
sVstop
p228
I1405
sVpreferred
p229
I1109
sVbar
p230
I142
sVunlatch
p231
I1569
sVrowing
p232
I1247
sVdipping
p233
I414
sVthrusts
p234
I1496
sVrelease
p235
I1189
sVears
p236
I456
sVblet
p237
I198
sVpads
p238
I1023
sVtoes
p239
I1516
sVresult
p240
I1209
sVhammer
p241
I656
sVbest
p242
I178
sV00
p243
I0
sVaway
p244
I126
sVfinger
p245
I544
sVsimplest
p246
I1306
sVdrawn
p247
I440
sVwarrior
p248
I1601
sVwe
p249
I1604
sVextend
p250
I507
sVrolled
p251
I1228
sVhowever
p252
I707
sVwear
p253
I1605
sVpicking
p254
I1060
sVroller
p255
I1229
sVimprove
p256
I721
sVfaced
p257
I518
sVprotect
p258
I1125
sVagainst
p259
I53
sVfaces
p260
I520
sVpre
p261
I1106
sVtone
p262
I1518
sVheight
p263
I683
sVkettlebells
p264
I796
sVwider
p265
I1621
sVloaded
p266
I871
sVbikin
p267
I192
sVabdominal
p268
I17
sVputs
p269
I1144
sVthree
p270
I1488
sVbeen
p271
I155
sVquickly
p272
I1150
sVmuch
p273
I953
sVbasic
p274
I150
sVtoning
p275
I1520
sVdeeper
p276
I383
sVrelaxing
p277
I1188
sVlift
p278
I850
sVcatch
p279
I257
sVdeepen
p280
I382
sVquadricep
p281
I1147
sVsculpt
p282
I1257
sVair
p283
I58
sVlesser
p284
I839
sVnear
p285
I960
sVbodybar
p286
I203
sVstopping
p287
I1407
sVbalance
p288
I135
sVanchor
p289
I77
sVis
p290
I770
sVit
p291
I775
sVthroat
p292
I1489
sVcone
p293
I314
sVin
p294
I724
sVif
p295
I713
sVdescent
p296
I397
sVperform
p297
I1053
sVmake
p298
I908
sVbeside
p299
I176
sVsplit
p300
I1348
sVincorrectly
p301
I732
sVplates
p302
I1076
sVyour3
p303
I1647
sVfairly
p304
I522
sVhang
p305
I669
sVhand
p306
I660
sVcycle
p307
I371
sVkept
p308
I794
sVhopping
p309
I703
sVforceful
p310
I594
sVcontact
p311
I322
sVthe
p312
I1473
sVleft
p313
I832
sVjust
p314
I788
sVdownwards
p315
I436
sVrotated
p316
I1238
sVgravity
p317
I641
sVthumbs
p318
I1498
sVshuffle
p319
I1299
sVrotates
p320
I1239
sVyet
p321
I1642
sVprevious
p322
I1118
sVadding
p323
I37
sVfoot4
p324
I587
sVease
p325
I457
sVjefferson
p326
I778
sVeasy
p327
I461
sVhas
p328
I672
sVdesire
p329
I399
sVwhich
p330
I1615
sVbands
p331
I141
sVfeett
p332
I534
sVpossibly
p333
I1097
sVboxes
p334
I213
sVinjuring
p335
I748
sVunique
p336
I1568
sVadvanced
p337
I48
sVapart
p338
I89
sVshoulder
p339
I1292
sVperforming
p340
I1055
sVmanual
p341
I915
sVswitching
p342
I1455
sVsteps
p343
I1398
sVbeneficial
p344
I172
sVright
p345
I1220
sVold
p346
I987
sVpeople
p347
I1052
sVcollarbone
p348
I294
sVcrown
p349
I354
sVhanding
p350
I662
sVdead
p351
I375
sVstraightening
p352
I1413
sVfor
p353
I591
sVbottom
p354
I208
sVear
p355
I455
sVopposite
p356
I997
sVsqueeze
p357
I1363
sVcontinue
p358
I324
sVtreadmill
p359
I1539
sVcore
p360
I334
sVpeel
p361
I1048
sVpose
p362
I1085
sVillustration
p363
I714
sVshifting
p364
I1286
sVlosing
p365
I887
sVpost
p366
I1098
sVbenches
p367
I168
sVlightheaded
p368
I857
sVribs
p369
I1218
sVeight
p370
I469
sVslightly
p371
I1321
sVraised
p372
I1156
sVforcefully
p373
I595
sVdown
p374
I433
sVraises
p375
I1157
sVbalanced
p376
I137
sVinces
p377
I725
sVsupport
p378
I1440
sVinitial
p379
I745
sVfight
p380
I538
sVwidth
p381
I1622
sVgrasping
p382
I640
sVway
p383
I1602
sVoverhand
p384
I1014
sVlowest
p385
I894
sVhead
p386
I676
sVmedium
p387
I926
sVform
p388
I601
sVsomething
p389
I1338
sVforming
p390
I602
sVlanding
p391
I812
sVbalance3
p392
I136
sVpowerfully
p393
I1103
sVbuilds
p394
I231
sVversions
p395
I1591
sVprevents
p396
I1117
sVinside
p397
I752
sVattached
p398
I115
sVmaximum
p399
I921
sVmore
p400
I939
sVstrengthening
p401
I1419
sVshin
p402
I1288
sVlowering
p403
I893
sVtoss
p404
I1525
sVoutstretched
p405
I1009
sVno
p406
I971
sVwhen
p407
I1613
sVloosening
p408
I885
sVsetting
p409
I1280
sVholding
p410
I699
sVroll
p411
I1227
sVpalms
p412
I1028
sVfelt
p413
I535
sVrolling
p414
I1230
sVfaster
p415
I528
sVtogether
p416
I1517
sVhyperextend
p417
I712
sVtime
p418
I1509
sVpush
p419
I1137
sVserious
p420
I1277
sVbackward
p421
I133
sVstacks
p422
I1374
sVrelieve
p423
I1190
sVfocus
p424
I576
sVquadriceps
p425
I1148
sVchair
p426
I264
sVinterlaced
p427
I758
sValigned
p428
I60
sVbicep4
p429
I184
sVthighs
p430
I1482
sVbicycles
p431
I188
sVrhythm
p432
I1216
sVstabilizing
p433
I1370
sVdeltoids
p434
I392
sVsupported
p435
I1441
sVjerk
p436
I779
sVsupinated
p437
I1438
sVstays
p438
I1393
sVlocked
p439
I875
sVminute
p440
I931
sVaggressively
p441
I54
sVbiceps
p442
I185
sVlevel
p443
I842
sVleave
p444
I830
sVlever
p445
I846
sVdip
p446
I413
sVround
p447
I1244
sVprevent
p448
I1116
sVolympic
p449
I989
sVwork
p450
I1629
sVslower
p451
I1325
sVsecurely
p452
I1268
sVslowed
p453
I1324
sVtargets
p454
I1467
sVassistance
p455
I110
sVcontracted
p456
I328
sVgoes
p457
I630
sVfalling
p458
I523
sVcurled
p459
I363
sVsupporting
p460
I1442
sVburn
p461
I234
sVlakes
p462
I810
sValong
p463
I67
sVchange
p464
I266
sVbox
p465
I212
sVshift
p466
I1285
sVineffective
p467
I741
sVpillow
p468
I1064
sVspurts
p469
I1356
sVadjustable
p470
I44
sVextra
p471
I514
sVprefer
p472
I1108
sVmarked
p473
I917
sVflexibility
p474
I561
sVrarely
p475
I1161
sVworking
p476
I1630
sVpositive
p477
I1093
sVtightly
p478
I1505
sVanatomical
p479
I76
sVhandles
p480
I664
sVwood
p481
I1628
sVrefrain
p482
I1181
sVeffort
p483
I468
sVfly
p484
I572
sVrebounding
p485
I1171
sVjudo
p486
I784
sVavoiding
p487
I125
sVmodified
p488
I934
sVcan
p489
I251
sVfollowing
p490
I584
sVmaking
p491
I910
sVfigure
p492
I539
sVlocks
p493
I877
sVchin
p494
I270
sVperformed
p495
I1054
sVcardio
p496
I253
sVtilt
p497
I1507
sVsecured
p498
I1267
sVtill
p499
I1506
sVpins
p500
I1066
sVoptimal
p501
I998
sVfirmly
p502
I551
sVstaying
p503
I1392
sVmat
p504
I920
sVmay
p505
I922
sVspot
p506
I1351
sVdesigned
p507
I398
sVimproving
p508
I723
sVsuch
p509
I1433
sVlifting
p510
I853
sVman
p511
I911
sVpulley
p512
I1132
sVstress
p513
I1422
sVneck
p514
I963
sVswitch
p515
I1454
sVso
p516
I1333
sVtall
p517
I1462
sVpulled
p518
I1131
sVtypical
p519
I1557
sVpointed
p520
I1081
sVmainly
p521
I903
sVflips
p522
I566
sVstability
p523
I1365
sVmotions
p524
I944
sVdiffers
p525
I410
sVstill
p526
I1402
sVheels3
p527
I682
sVthumb
p528
I1497
sVcurly
p529
I366
sVkeping
p530
I793
sVcurls
p531
I365
sVforms
p532
I603
sVplatform
p533
I1077
sVoffers
p534
I985
sVmain
p535
I902
sVinstantly
p536
I753
sVfootpad
p537
I588
sVhop
p538
I702
sVtucked
p539
I1547
sVunderneath
p540
I1564
sVtouching
p541
I1529
sVhalf
p542
I654
sVnot
p543
I974
sVnow
p544
I976
sVmaintaining
p545
I906
sVwont
p546
I1627
sVexecute
p547
I496
sVfirming
p548
I550
sVstabilize
p549
I1367
sVdrop
p550
I444
sVbursts
p551
I236
sVbowling
p552
I211
sVindividually
p553
I738
sVsquare
p554
I1359
sVwrap
p555
I1637
sVunlock
p556
I1572
sVcatching
p557
I258
sVfingertips
p558
I546
sVspace
p559
I1340
sVlooking
p560
I880
sVreceiving
p561
I1173
sVcorrect
p562
I336
sVfacedown
p563
I519
sVsideways
p564
I1302
sVbesides
p565
I177
sVadvance
p566
I47
sVtraining
p567
I1534
sVbackside
p568
I132
sVtransition
p569
I1536
sVcalories
p570
I247
sVmotion
p571
I943
sVthing
p572
I1484
sVplace
p573
I1067
sVswing
p574
I1452
sVfirst
p575
I552
sVhipbone
p576
I692
sVone
p577
I992
sVlong
p578
I878
sVdirectly
p579
I417
sVopen
p580
I995
sVsize
p581
I1312
sVclanking
p582
I276
sVlittle
p583
I869
sVwaist
p584
I1595
sVplank
p585
I1073
sVanyone
p586
I88
sVgives
p587
I626
sVeyes
p588
I515
sVhug
p589
I708
sVmostly
p590
I942
sVthat
p591
I1472
sVsnatch
p592
I1332
sVpadding
p593
I1022
sVbutt
p594
I238
sVattempt
p595
I120
sVholder
p596
I697
sVthan
p597
I1471
sV11
p598
I2
sV10
p599
I1
sV12
p600
I3
sV15
p601
I4
sV16
p602
I5
sV18
p603
I6
sVwere
p604
I1611
sVand
p605
I78
sVturned
p606
I1550
sVhands2
p607
I667
sVcrossover
p608
I351
sVslam
p609
I1318
sVdeadlifts
p610
I377
sVany
p611
I87
sVsuperman
p612
I1436
sVsquat
p613
I1360
sVisolate
p614
I772
sVequipment
p615
I487
sVsquad
p616
I1357
sVtake
p617
I1460
sVadjusting
p618
I46
sVbutterfly
p619
I239
sVbegin
p620
I158
sVsure
p621
I1444
sVpain
p622
I1024
sVnormal
p623
I972
sVpair
p624
I1026
sVknee
p625
I801
sVcuban
p626
I359
sVespecially
p627
I489
sVsteady
p628
I1395
sVdrive
p629
I441
sVtouche
p630
I1527
sVtypically
p631
I1558
sVsculpted
p632
I1258
sVcobra
p633
I292
sVelevate
p634
I473
sVhack
p635
I653
sVcorner
p636
I335
sVground
p637
I648
sVslow
p638
I1323
sVstair
p639
I1376
sVromanian
p640
I1234
sVenough
p641
I483
sVonly
p642
I993
sVgoing
p643
I631
sVget
p644
I621
sVvary
p645
I1589
sVreps
p646
I1200
sVcannot
p647
I252
sVnearly
p648
I961
sVlighter
p649
I856
sVsettings
p650
I1281
sVmorning
p651
I940
sVfinishing
p652
I548
sVwhere
p653
I1614
sVworrying
p654
I1634
sVseat
p655
I1260
sVsport
p656
I1349
sVways
p657
I1603
sVsites
p658
I1310
sVoutside
p659
I1008
sVbetween
p660
I180
sVacross
p661
I32
sVvertical
p662
I1592
sVdome
p663
I427
sVconcentrate
p664
I308
sVrapidly
p665
I1160
sVcome
p666
I298
sVtuck
p667
I1546
sVmany
p668
I916
sVregion
p669
I1182
sVrecumbent
p670
I1178
sVcontract
p671
I327
sVblasts
p672
I197
sVconcentrates
p673
I309
sVholders
p674
I698
sVcomes
p675
I299
sVstretches
p676
I1425
sVafterwards
p677
I51
sV60
p678
I13
sVpole
p679
I1083
sVstretched
p680
I1424
sVlearning
p681
I828
sVcombines
p682
I297
sVcycling
p683
I372
sVstretch
p684
I1423
sVforearm
p685
I598
sVbreath
p686
I217
sVdirection
p687
I416
sVfours
p688
I608
sVrasting
p689
I1162
sVtightened
p690
I1503
sVexternal
p691
I512
sVcareful
p692
I255
sVthose
p693
I1486
sVpaying
p694
I1041
sVstacked
p695
I1373
sVdeveloping
p696
I402
sVthese
p697
I1479
sVstraighten
p698
I1411
sVarnold
p699
I103
sVtips1
p700
I1512
sVpinky
p701
I1065
sVmiddle
p702
I928
sVpressing
p703
I1114
sVpushdown
p704
I1138
sVreturn
p705
I1213
sVmovements
p706
I950
sVdifferent
p707
I408
sVdevelop
p708
I401
sVlocking
p709
I876
sVsame
p710
I1255
sVshifts
p711
I1287
sVpad
p712
I1020
sVpushup
p713
I1142
sVworkout
p714
I1631
sVfinish
p715
I547
sVclosest
p716
I291
sVsquatted
p717
I1361
sVassist
p718
I109
sVdriven
p719
I442
sVrunning
p720
I1249
sVedges
p721
I463
sVtwo
p722
I1555
sVunmanageable
p723
I1573
sVclimbing
p724
I285
sVflexed
p725
I560
sVinhalation
p726
I742
sVfloor
p727
I567
sVwithout
p728
I1626
sVvery
p729
I1594
sVeasing
p730
I460
sVbeing
p731
I161
sVrest
p732
I1205
sVaspect
p733
I108
sVtouch
p734
I1526
sVspeed
p735
I1344
sVguides
p736
I651
sVhalfway
p737
I655
sVdumbbells1
p738
I450
sVgrounded
p739
I649
sVexcept
p740
I495
sVthighs1
p741
I1483
sVpile
p742
I1063
sVpossible3
p743
I1095
sVheavier
p744
I678
sVmomentum
p745
I937
sVgrip
p746
I644
sVaround
p747
I104
sVrepetitions
p748
I1199
sVsumo
p749
I1435
sVusing
p750
I1585
sVblankets
p751
I196
sVrear
p752
I1170
sVvertically
p753
I1593
sVbarbells
p754
I144
sVtowel
p755
I1532
sVreduces
p756
I1180
sVfacing
p757
I521
sVbenefit
p758
I173
sVeither
p759
I470
sVdownward
p760
I435
sVstationary
p761
I1390
sVclap
p762
I277
sVduration
p763
I452
sVascent
p764
I106
sVpilates
p765
I1062
sVstops
p766
I1408
sVmoon
p767
I938
sVprovides
p768
I1127
sVbiased
p769
I182
sVpower
p770
I1101
sVseconds
p771
I1263
sVeach
p772
I454
sVthrow
p773
I1492
sVon
p774
I990
sVof
p775
I983
sVsustain
p776
I1448
sVchop
p777
I272
sVstand
p778
I1379
sVdecent
p779
I378
sVfootrests
p780
I590
sVor
p781
I1000
sVroad
p782
I1224
sVlands
p783
I813
sVcurling
p784
I364
sVburning
p785
I235
sVspreading
p786
I1354
sVlegged
p787
I835
sVvariable
p788
I1587
sVyour
p789
I1646
sVattaching
p790
I116
sVfast
p791
I527
sVprepare
p792
I1111
sVarea
p793
I97
sVaren
p794
I98
sVthere
p795
I1478
sVstart
p796
I1384
sVlow
p797
I890
sVlot
p798
I889
sVmuscle2
p799
I956
sVcomplete
p800
I305
sVreduce
p801
I1179
sVpulleys
p802
I1133
sVbeginners
p803
I159
sVstrenuous
p804
I1421
sVshrugs
p805
I1298
sVtrying
p806
I1545
sVwith
p807
I1624
sVyou2
p808
I1645
sVpull
p809
I1129
sVrush
p810
I1250
sVtoner
p811
I1519
sVgrasp
p812
I638
sVisolating
p813
I774
sVbuilders
p814
I229
sVgone
p815
I632
sVab
p816
I15
sVmoved
p817
I948
sVshoulders
p818
I1294
sVdeep
p819
I381
sVan
p820
I75
sVas
p821
I105
sVgrasped
p822
I639
sVmoves
p823
I951
sVcables
p824
I244
sVincorrect
p825
I731
sVagain
p826
I52
sVyoga
p827
I1643
sVfield
p828
I537
sVyou
p829
I1644
sVforcing
p830
I597
sVgaining
p831
I618
sVbriefly
p832
I222
sVtailbone
p833
I1459
sVimportant
p834
I718
sVpeak
p835
I1042
sVsuited
p836
I1434
sVbuilding
p837
I230
sVunload
p838
I1571
sVcurve
p839
I368
sVeverted
p840
I493
sVpassed
p841
I1036
sVmass
p842
I918
sVevenly
p843
I492
sVstarting
p844
I1387
sVoriginal
p845
I1002
sVlevers
p846
I848
sVall
p847
I62
sVlace
p848
I807
sVpointing
p849
I1082
sVexecuting
p850
I497
sVcambered
p851
I250
sVfollow
p852
I582
sVimproperly
p853
I720
sVto
p854
I1514
sVflattening
p855
I558
sVactivities
p856
I33
sVlifters
p857
I852
sVreturning
p858
I1214
sVfar
p859
I525
sVgironda
p860
I624
sVfat
p861
I529
sVresistance
p862
I1203
sVclench
p863
I282
sVfrankenstein
p864
I609
sVdifference
p865
I407
sVcondition
p866
I312
sVcable
p867
I243
sVlaying
p868
I822
sVlarge
p869
I814
sVadjust
p870
I43
sVsmall
p871
I1327
sVpass
p872
I1035
sVfurther
p873
I615
sVwhat
p874
I1612
sVcentering
p875
I263
sVclock
p876
I286
sVsection
p877
I1265
sVabs
p878
I26
sVadduction
p879
I40
sVrow
p880
I1246
sVracing
p881
I1151
sVmovement
p882
I949
sVfull
p883
I613
sVstrong
p884
I1427
sVahead
p885
I56
sVstretching
p886
I1426
sVallows
p887
I65
sVkettlebell
p888
I795
sVamount
p889
I74
sVpick
p890
I1059
sVnarrow
p891
I959
sVfollowed
p892
I583
sVask
p893
I107
sVbungy
p894
I233
sVarmed
p895
I100
sVselect
p896
I1271
sVinjure
p897
I746
sVcontains
p898
I323
sVfinally
p899
I541
sVinjury
p900
I749
sVpossible
p901
I1094
sVoutwards
p902
I1011
sVflat
p903
I557
sVdiamond
p904
I406
sVgrabbing
p905
I636
sVpectorals
p906
I1046
sVstick
p907
I1400
sVknown
p908
I806
sVkeeping
p909
I790
sVstrain
p910
I1414
sVlearn
p911
I827
sVchallenging
p912
I265
sVpushes
p913
I1140
sVjoints
p914
I783
sVpushed
p915
I1139
sVattain
p916
I119
sVaxis
p917
I127
sVrather
p918
I1163
sVheadrest
p919
I677
sVtries
p920
I1543
sVplane
p921
I1072
sVblood
p922
I201
sVcoming
p923
I302
sVhorizontal
p924
I704
sVconcentrating
p925
I310
sVflutter
p926
I571
sVfo
p927
I575
sVshort
p928
I1290
sVtwisting
p929
I1554
sVinline
p930
I750
sVhelp
p931
I685
sVadduct
p932
I39
sVoblique
p933
I979
sVsoon
p934
I1339
sVheld
p935
I684
sVthrough
p936
I1490
sVits
p937
I776
sVcardiovascular
p938
I254
sV24
p939
I8
sV25
p940
I9
sV20
p941
I7
sVlats
p942
I820
sVinward
p943
I767
sVlateral
p944
I818
sVactually
p945
I35
sVsoles
p946
I1335
sVmight
p947
I929
sVgood
p948
I633
sVsomebody
p949
I1337
sVfoot
p950
I586
sVbigger
p951
I190
sVeasily
p952
I459
sVfully
p953
I614
sVcourses
p954
I341
sVpositions
p955
I1091
sVrepeating
p956
I1198
sVdifficult
p957
I411
sVnotes
p958
I975
sVheavy
p959
I679
sVdumbbells
p960
I449
sVtilted
p961
I1508
sVweight
p962
I1607
sVhard
p963
I671
sVpositioned
p964
I1089
sVtighten
p965
I1501
sVengaging
p966
I482
sVextended
p967
I508
sVconnect
p968
I316
sVdorsiflex
p969
I431
sVbeyond
p970
I181
sVtry
p971
I1544
sVsafety
p972
I1254
sVpasses
p973
I1037
sVdifficulty
p974
I412
sVbase
p975
I148
sVconditioning
p976
I313
sVput
p977
I1143
sVdefinition
p978
I387
sVbenefits
p979
I174
sVpositioning
p980
I1090
sVmuscles3
p981
I958
sVmuscle1
p982
I955
sVmajor
p983
I907
sVutilizes
p984
I1586
sVupper
p985
I1577
sVfeel
p986
I530
sVnumber
p987
I977
sVfeet
p988
I533
sVdone
p989
I429
sVchanging
p990
I267
sVobliques
p991
I980
sVquads
p992
I1149
sVabdominals4
p993
I19
sVleverage
p994
I847
sVtate
p995
I1468
sVleading
p996
I824
sVsmoother
p997
I1330
sVleast
p998
I829
sVstork
p999
I1409
sVstation
p1000
I1389
sVpains
p1001
I1025
sVmuscles
p1002
I957
sVoption
p1003
I999
sVforward3
p1004
I607
sVforward2
p1005
I606
sVpart
p1006
I1031
sVfocusing
p1007
I579
sVtraps
p1008
I1538
sVste
p1009
I1394
sVfold
p1010
I580
sVgotten
p1011
I634
sVcuff
p1012
I360
sVoutdoors
p1013
I1006
sVtoward
p1014
I1530
sVmotivation
p1015
I945
sVstrengthen
p1016
I1418
sValongside
p1017
I68
sVtucking
p1018
I1548
sVconcentration
p1019
I311
sVlie
p1020
I849
sVdepending
p1021
I394
sVlin
p1022
I865
sVlaterally
p1023
I819
sVlifts
p1024
I854
sVbuild
p1025
I228
sVfinding
p1026
I543
sVbrace
p1027
I215
sVtool
p1028
I1522
sVplay
p1029
I1079
sVadded
p1030
I36
sVreach
p1031
I1165
sVmost
p1032
I941
sVsignificant
p1033
I1303
sVsturdy
p1034
I1431
sVcover
p1035
I342
sVclean
p1036
I281
sVweigh
p1037
I1606
sVhips
p1038
I693
sVhyper
p1039
I711
sVtaller
p1040
I1463
sVhugging
p1041
I709
sVbarbell
p1042
I143
sVcarefully
p1043
I256
sVfont
p1044
I585
sVfind
p1045
I542
sVimpact
p1046
I717
sVsecuring
p1047
I1269
sVdistributed
p1048
I420
sVcircle
p1049
I273
sVhip
p1050
I691
sVhit
p1051
I694
sVfeels
p1052
I532
sVexplosively
p1053
I506
sVclosely
p1054
I289
sVduring
p1055
I453
sVworkouts
p1056
I1632
sVremove
p1057
I1194
sVcommon
p1058
I303
sVactivity
p1059
I34
sVbars
p1060
I147
sVset
p1061
I1278
sVthrowing
p1062
I1493
sVsee
p1063
I1270
sVindividual
p1064
I737
sVare
p1065
I96
sVclose
p1066
I288
sVoutward
p1067
I1010
sVcrunching
p1068
I357
sVknees
p1069
I804
sVstance
p1070
I1378
sVcurrently
p1071
I367
sVkneeling
p1072
I803
sVtighten3
p1073
I1502
sVabdominals
p1074
I18
sVavailable
p1075
I123
sVcreating
p1076
I345
sVtargeted
p1077
I1465
sVsole
p1078
I1334
sVboth
p1079
I207
sVlast
p1080
I816
sVreverse
p1081
I1215
sVbarely
p1082
I146
sVroman
p1083
I1233
sVimproves
p1084
I722
sVlet
p1085
I840
sVwhole
p1086
I1619
sVpendulum
p1087
I1051
sVpoint
p1088
I1080
sVsimple
p1089
I1305
sVsky
p1090
I1316
sVimproper
p1091
I719
sVclimbers
p1092
I284
sVthroughout
p1093
I1491
sVbelt
p1094
I165
sVdecline
p1095
I380
sVraise
p1096
I1155
sVcreate
p1097
I343
sVdropping
p1098
I446
sVempty
p1099
I477
sVfirm
p1100
I549
sVresting
p1101
I1207
sVrocking
p1102
I1226
sVhandling
p1103
I665
sVlook
p1104
I879
sVbelly
p1105
I163
sVstraight
p1106
I1410
sVstabilized
p1107
I1368
sVrope
p1108
I1236
sVpace
p1109
I1018
sVwhile
p1110
I1616
sVpressed
p1111
I1113
sVleaning
p1112
I826
sVloop
p1113
I881
sVpack
p1114
I1019
sVlarger
p1115
I815
sVarching
p1116
I94
sVlevel2
p1117
I843
sVobstacle
p1118
I981
sVlevel5
p1119
I844
sVloosened
p1120
I884
sVready
p1121
I1169
sVrib
p1122
I1217
sVelevated
p1123
I474
sVhigher
p1124
I689
sVdevelopment
p1125
I403
sVused
p1126
I1583
sVtower
p1127
I1533
sVmountain
p1128
I946
sVmoment
p1129
I935
sVlevels
p1130
I845
sVmoving
p1131
I952
sVstack
p1132
I1372
sVlacrosse
p1133
I808
sVlower
p1134
I891
sVdouble
p1135
I432
sVperson
p1136
I1058
sVfootpads
p1137
I589
sVedge
p1138
I462
sVself
p1139
I1273
sVclasped
p1140
I279
sVpowering
p1141
I1104
sVshape
p1142
I1282
sVintervals
p1143
I762
sVbehind
p1144
I160
sValternative
p1145
I73
sVinjuries
p1146
I747
sVletting
p1147
I841
sVloading
p1148
I872
sValso
p1149
I69
sValternate
p1150
I70
sVchest
p1151
I269
sVinternal
p1152
I761
sVremaining
p1153
I1192
sVbig
p1154
I189
sVbit
p1155
I193
sVabduct
p1156
I20
sVisolates
p1157
I773
sVrotate
p1158
I1237
sVsemi
p1159
I1274
sVshaped
p1160
I1283
sVspine
p1161
I1346
sVindividuals
p1162
I739
sVessential
p1163
I490
sVpronated
p1164
I1121
sVoften
p1165
I986
sVsome
p1166
I1336
sVback
p1167
I128
sVbounce
p1168
I209
sVtowards
p1169
I1531
sVpalm
p1170
I1027
sVaccelerate
p1171
I29
sVmirror
p1172
I933
sVsprint
p1173
I1355
sVwrists
p1174
I1641
sVaerobic
p1175
I49
sVrehabilitating
p1176
I1184
sVconnecting
p1177
I318
sVpec
p1178
I1043
sVbe
p1179
I151
sVjumps
p1180
I787
sVcontinuing
p1181
I325
sVperpendicular
p1182
I1057
sVstep
p1183
I1396
sVintense
p1184
I756
sVstraightened
p1185
I1412
sVrange
p1186
I1159
sVshins
p1187
I1289
sVforearms
p1188
I599
sVblock
p1189
I199
sVsupermans
p1190
I1437
sVanterior
p1191
I86
sVinto
p1192
I763
sVwithin
p1193
I1625
sVprimarily
p1194
I1119
sVsports
p1195
I1350
sVrolls
p1196
I1232
sVrows
p1197
I1248
sVplacing
p1198
I1071
sVlive
p1199
I870
sVspecifically
p1200
I1343
sVforward
p1201
I605
sVdelts
p1202
I393
sVinches
p1203
I727
sVrelaxed
p1204
I1187
sVproperly
p1205
I1124
sVflexor
p1206
I563
sVupright
p1207
I1578
sVline
p1208
I866
sVraising
p1209
I1158
sVskull
p1210
I1315
sVup
p1211
I1575
sVun
p1212
I1559
sVcontinuously
p1213
I326
sVsimilar
p1214
I1304
sVconstant
p1215
I321
sVdoesn
p1216
I424
sVlye
p1217
I898
sVsingle
p1218
I1308
sVbicep
p1219
I183
sVcurl
p1220
I362
sVendurance
p1221
I480
sVbacks
p1222
I131
sVretract
p1223
I1211
sVnice
p1224
I970
sVdraw
p1225
I438
sVcrouching
p1226
I353
sVlunging
p1227
I896
sVhelping
p1228
I686
sVdrag
p1229
I437
sVrested
p1230
I1206
sVallowing
p1231
I64
sVsides
p1232
I1301
sVstructure
p1233
I1429
sVfurthest
p1234
I616
sVland
p1235
I811
sVback4
p1236
I129
sVrequired
p1237
I1201
sVdepth
p1238
I395
sVweights
p1239
I1609
sVlying
p1240
I899
sVrequires
p1241
I1202
sVhaving
p1242
I674
sVonce
p1243
I991
sVresults
p1244
I1210
sVclassic
p1245
I280
sVgo
p1246
I629
sVdumbbell
p1247
I448
sVposition4
p1248
I1088
sVnose
p1249
I973
sVpulldown
p1250
I1130
sVsqueezing
p1251
I1364
sVhelps
p1252
I687
sVstable
p1253
I1371
sVbreathing
p1254
I219
sVballs
p1255
I139
sVputting
p1256
I1145
sVposture
p1257
I1100
sVentire
p1258
I484
sVstiff
p1259
I1401
sVexperiencing
p1260
I503
sVbutton
p1261
I241
sVsupine
p1262
I1439
sVrack
p1263
I1152
sVgripping
p1264
I645
sVrivers
p1265
I1223
sVjump
p1266
I785
sVbodybuilding
p1267
I205
sVuncomfortable
p1268
I1560
sVretracting
p1269
I1212
sVassisted
p1270
I111
sVreaching
p1271
I1168
sVexercise
p1272
I498
sVbody
p1273
I202
sVfocuses
p1274
I578
sVdegree
p1275
I388
sVleg
p1276
I833
sVbench2
p1277
I167
sVpushing
p1278
I1141
sVspacing
p1279
I1341
sVdesired
p1280
I400
sVfocused
p1281
I577
sVsafer
p1282
I1253
sVgreat
p1283
I642
sVengage
p1284
I481
sVreceive
p1285
I1172
sV30
p1286
I10
sV35
p1287
I11
sVleaving
p1288
I831
sVarmpit
p1289
I101
sVclimb
p1290
I283
sVmakes
p1291
I909
sVinvolves
p1292
I766
sVstabilization
p1293
I1366
sVmanage
p1294
I912
sVclockwise
p1295
I287
sVstaple
p1296
I1382
sVstanding
p1297
I1381
sVuse
p1298
I1582
sVfrom
p1299
I611
sVnext
p1300
I969
sVfew
p1301
I536
sVlock
p1302
I874
sVyourcalves
p1303
I1648
sVcheeks
p1304
I268
sVstarted
p1305
I1386
sVbecomes
p1306
I154
sVinclined
p1307
I729
sVtriceps
p1308
I1541
sVcrosses
p1309
I349
sVpanted
p1310
I1029
sVthis
p1311
I1485
sVarches
p1312
I93
sVcrossed
p1313
I348
sVstabilizer
p1314
I1369
sVdropped
p1315
I445
sVcontrol
p1316
I331
sVbent
p1317
I175
sVdo
p1318
I421
sVprocess
p1319
I1120
sVpelvic
p1320
I1049
sVhigh
p1321
I688
sVeffectively
p1322
I466
sVpulling
p1323
I1135
sVbend
p1324
I169
sVslip
p1325
I1322
sVpelvis
p1326
I1050
sVsit
p1327
I1309
sVbungee
p1328
I232
sVboxing
p1329
I214
sVlocated
p1330
I873
sVattachment
p1331
I117
sVelliptical
p1332
I476
sVinstead
p1333
I754
sVcuffed
p1334
I361
sVcircular
p1335
I275
sVtension
p1336
I1469
sVblocks
p1337
I200
sVglute
p1338
I627
sVtact
p1339
I1458
sVdiscomfort
p1340
I418
sVdeltoid
p1341
I391
sVfits
p1342
I555
sVracks
p1343
I1154
sVlight
p1344
I855
sVcounter
p1345
I340
sVlines
p1346
I868
sVallow
p1347
I63
sVlined
p1348
I867
sVholds
p1349
I700
sVthigh
p1350
I1481
sVmove
p1351
I947
sVtiptoes
p1352
I1513
sVlooping
p1353
I882
sVstoppers
p1354
I1406
sVhand3
p1355
I661
sVbiceps4
p1356
I186
sVhorizontally
p1357
I705
sVouter
p1358
I1007
sVbroom
p1359
I226
sVpullover
p1360
I1136
sVsquatting
p1361
I1362
sVdegrees
p1362
I389
sVimbalance
p1363
I715
sVdefining
p1364
I386
sVflex
p1365
I559
sVgreater
p1366
I643
sVpractice
p1367
I1105
sVdock
p1368
I422
sVhands
p1369
I666
sVfront
p1370
I612
sVrotation
p1371
I1241
sVcage
p1372
I245
sVsternum
p1373
I1399
sVslide
p1374
I1319
sVtrap
p1375
I1537
sVcrossing
p1376
I350
sVbeneath
p1377
I171
sVupward
p1378
I1580
sVankles
p1379
I84
sVdoing
p1380
I426
sVinverted
p1381
I764
sVmeasure
p1382
I924
sVseparating
p1383
I1276
sVour
p1384
I1004
sVflys
p1385
I574
sVout
p1386
I1005
sVrep
p1387
I1195
sVcause
p1388
I259
sVsculpting
p1389
I1259
sVattachment3
p1390
I118
sVdiagonal
p1391
I404
sVinhaling
p1392
I744
sVabductor
p1393
I21
sVthrust
p1394
I1494
sVmaintaing
p1395
I905
sVbackwards
p1396
I134
sVcould
p1397
I338
sVkees
p1398
I792
sVkeep
p1399
I789
sVlength
p1400
I837
sVwrist
p1401
I1640
sVstaggered
p1402
I1375
sVpowerful
p1403
I1102
sVreaches
p1404
I1167
sVhurdle
p1405
I710
sVreached
p1406
I1166
sVbraces
p1407
I216
sVsystem
p1408
I1456
sVattach
p1409
I114
sVpositing
p1410
I1086
sVankle
p1411
I83
sVfinal
p1412
I540
sVprone
p1413
I1122
sVagility
p1414
I55
sVdumbells
p1415
I451
sVshelf
p1416
I1284
sVcompleted
p1417
I306
sVsimulate
p1418
I1307
sVremember
p1419
I1193
sVbuttocks
p1420
I240
sVkickback
p1421
I799
sVlimiting
p1422
I863
sVarc
p1423
I91
sVbard
p1424
I145
sVstraps
p1425
I1416
sVlightly
p1426
I858
sVgently
p1427
I620
sVcurves
p1428
I370
sVcomfortable
p1429
I300
sVcomfortably
p1430
I301
sVhave
p1431
I673
sVneed
p1432
I964
sVcurved
p1433
I369
sVangle
p1434
I79
sVable
p1435
I23
sVmid
p1436
I927
sVarm
p1437
I99
sVpectoral
p1438
I1045
sVgrounding
p1439
I650
sVhandstring
p1440
I668
sVblades
p1441
I195
sVunhunch
p1442
I1566
sVunless
p1443
I1570
sVcombat
p1444
I295
sVwho
p1445
I1618
sVpausing
p1446
I1040
sVconnected
p1447
I317
sVbut
p1448
I237
sVrollout
p1449
I1231
sVclasp
p1450
I278
sVplacement
p1451
I1069
sVstronger
p1452
I1428
sVneutral
p1453
I966
sVface
p1454
I517
sVdeeply2
p1455
I384
sVabsorbing
p1456
I28
sVindoor
p1457
I740
sVrotating
p1458
I1240
sVbring
p1459
I223
sVrough
p1460
I1243
sVpause
p1461
I1039
sVbased
p1462
I149
sVjaw
p1463
I777
sVshould
p1464
I1291
sVplanted
p1465
I1074
sVriding
p1466
I1219
sVhe
p1467
I675
sVachieve
p1468
I31
sVmeant
p1469
I923
sVhandle
p1470
I663
sVfamiliar
p1471
I524
sVoverall
p1472
I1013
sVarcing
p1473
I95
sVjoint
p1474
I782
sVwhilst
p1475
I1617
sVgrap
p1476
I637
sVkneel
p1477
I802
sVtightening
p1478
I1504
sVgrab
p1479
I635
sVfixed
p1480
I556
sVfarthest
p1481
I526
sVracked
p1482
I1153
sVterrain
p1483
I1470
sVintensity
p1484
I757
sVspotter
p1485
I1352
sVcloser
p1486
I290
sVwalking
p1487
I1597
sVpulleys4
p1488
I1134
sVcorrectly
p1489
I337
sVroutine
p1490
I1245
sVends
p1491
I479
sVattention
p1492
I122
sVexplosive
p1493
I505
sVability
p1494
I22
sVopening
p1495
I996
sVlimbs
p1496
I861
sVkicking
p1497
I800
sVadductor
p1498
I41
sVkey
p1499
I797
sVsquads
p1500
I1358
sVhits
p1501
I695
sVlimits
p1502
I864
sVtorso
p1503
I1524
sVtaking
p1504
I1461
sVequal
p1505
I485
sVpassing
p1506
I1038
sVsafely
p1507
I1252
sVadjusted
p1508
I45
sVshoulder4
p1509
I1293
sVwall
p1510
I1598
sVwalk
p1511
I1596
sVangle3
p1512
I80
sVzottman
p1513
I1651
sVtable
p1514
I1457
sVinhale
p1515
I743
sValigning
p1516
I61
sVslowly
p1517
I1326
sVdefine
p1518
I385
sVangled
p1519
I81
sVheels
p1520
I681
sVcontrolled
p1521
I332
sVtricep
p1522
I1540
sVthrusting
p1523
I1495
sVangles
p1524
I82
sValign
p1525
I59
sVwill
p1526
I1623
sVrotator
p1527
I1242
sVgroin
p1528
I647
sVat
p1529
I113
sValmost
p1530
I66
sVthus
p1531
I1499
sVsurface
p1532
I1445
sVdual
p1533
I447
sVpartner
p1534
I1034
sVdecine
p1535
I379
sVperhaps
p1536
I1056
sVcrosspiece
p1537
I352
sVcross
p1538
I347
sVinch
p1539
I726
sVgets
p1540
I622
sVhammering
p1541
I657
sVelbows
p1542
I472
sVball
p1543
I138
sVabsorb
p1544
I27
sVflye
p1545
I573
sVupon
p1546
I1576
sVeffect
p1547
I464
sVquad
p1548
I1146
sVpedal
p1549
I1047
sVcollar
p1550
I293
sVexpand
p1551
I502
sVinsure
p1552
I755
sVoff
p1553
I984
sVcenter
p1554
I261
sVwell
p1555
I1610
sVflexing
p1556
I562
sVsets
p1557
I1279
sVposition
p1558
I1087
sVmuscle
p1559
I954
sVdrawing
p1560
I439
sVinterlocked
p1561
I759
sVbending
p1562
I170
sVflexors
p1563
I564
sVless
p1564
I838
sVmoments
p1565
I936
sVseconds4
p1566
I1264
sVcoordination
p1567
I333
sVtight
p1568
I1500
sVbell
p1569
I162
sVsmith
p1570
I1328
sVbench
p1571
I166
sVextends
p1572
I510
sVkick
p1573
I798
sVincreased
p1574
I734
sVincreases
p1575
I735
sVknow
p1576
I805
sVpress
p1577
I1112
sVimmediately
p1578
I716
sVcrusher
p1579
I358
sVloss
p1580
I888
sVnecessary
p1581
I962
sVlike
p1582
I859
sVcriss
p1583
I346
sVaccelerating
p1584
I30
sVlose
p1585
I886
sVbecome
p1586
I153
sVworks
p1587
I1633
sVheel
p1588
I680
sVbecause
p1589
I152
sVsmoothly
p1590
I1331
sVpostion
p1591
I1099
sVplatforms
p1592
I1078
sVproper
p1593
I1123
sVshrug
p1594
I1296
sVlead
p1595
I823
sVavoid
p1596
I124
sVlean
p1597
I825
sVdoes
p1598
I423
sVassuming
p1599
I112
sVslight
p1600
I1320
sVdangling
p1601
I374
sVselecting
p1602
I1272
sVrock
p1603
I1225
sVpressure
p1604
I1115
sVtargeting
p1605
I1466
sVpike
p1606
I1061
sVabout
p1607
I24
sVincline
p1608
I728
sVextension
p1609
I511
sVgetting
p1610
I623
sVswimming
p1611
I1451
sVequally
p1612
I486
sVown
p1613
I1017
sVweighted
p1614
I1608
sVerect
p1615
I488
sVadditional
p1616
I38
sVtransfer
p1617
I1535
sVstamina
p1618
I1377
sVspread
p1619
I1353
sVinner
p1620
I751
sVbackhand
p1621
I130
sVoverlapping
p1622
I1016
sVrepeated
p1623
I1197
sVlowered
p1624
I892
sVgain
p1625
I617
sVglutes
p1626
I628
sVhighest
p1627
I690
sVpartially
p1628
I1033
sVcount
p1629
I339
sVplaces
p1630
I1070
sVsmooth
p1631
I1329
sVflip
p1632
I565
sVplaced
p1633
I1068
sVbelow
p1634
I164
sVlimit
p1635
I862
sVskyward
p1636
I1317
sVminutes
p1637
I932
sVstrengthens
p1638
I1420
sVskating
p1639
I1313
sVez
p1640
I516
sVtwist
p1641
I1552
sVcompared
p1642
I304
sV45
p1643
I12
sVother
p1644
I1003
sVspecial
p1645
I1342
sVtricps
p1646
I1542
sVrepeat
p1647
I1196
sVstar
p1648
I1383
sVvariation
p1649
I1588
sVstay
p1650
I1391
sVupwards
p1651
I1581
sVportion
p1652
I1084
s.