(dp0
Vkettlebell
p1
I10
sVball
p2
I0
sVbar
p3
I2
sVweight
p4
I15
sVplate
p5
I12
sVbands
p6
I1
sVbench
p7
I4
sVdumbbell
p8
I7
sVmachine
p9
I11
sVez
p10
I9
sVpullup
p11
I13
sVcurl
p12
I6
sVbarbell
p13
I3
sVcardio
p14
I5
sVstrength
p15
I14
sVexercise
p16
I8
s.