(dp0
Vkettlebell
p1
I10
sVball
p2
I0
sVbar
p3
I2
sVweight
p4
I16
sVplate
p5
I13
sVbands
p6
I1
sVothers
p7
I12
sVbench
p8
I4
sVdumbbell
p9
I7
sVmachine
p10
I11
sVez
p11
I9
sVpullup
p12
I14
sVcurl
p13
I6
sVbarbell
p14
I3
sVcardio
p15
I5
sVstrength
p16
I15
sVexercise
p17
I8
s.