(dp0
Vupper
p1
I22
sVforearm
p2
I7
sVback
p3
I1
sVmiddle
p4
I15
sVobliques
p5
I16
sVquads
p6
I18
sVouter
p7
I17
sVlats
p8
I12
sVcardio
p9
I4
sVchest
p10
I5
sVabs
p11
I0
sVinner
p12
I11
sVlegs
p13
I13
sVshoulders
p14
I19
sVfull
p15
I8
sVdelts
p16
I6
sVlower
p17
I14
sVglutes
p18
I9
sVbiceps
p19
I2
sVcalves
p20
I3
sVtraps
p21
I20
sVhamstrings
p22
I10
sVtriceps
p23
I21
s.