(dp0
I0
V1200
p1
sI1
V1175
p2
sI2
V1269
p3
sI3
V1183
p4
sI4
V1268
p5
sI5
V1256
p6
sI6
V1144
p7
sI7
V1162
p8
sI8
V1218
p9
sI9
V1145
p10
sI10
V344
p11
sI11
V0
p12
sI12
V346
p13
sI13
V347
p14
sI14
V340
p15
sI15
V341
p16
sI16
V342
p17
sI17
V343
p18
sI18
V810
p19
sI19
V811
p20
sI20
V812
p21
sI21
V813
p22
sI22
V348
p23
sI23
V349
p24
sI24
V816
p25
sI25
V817
p26
sI26
V595
p27
sI27
V1149
p28
sI28
V719
p29
sI29
V718
p30
sI30
V717
p31
sI31
V716
p32
sI32
V715
p33
sI33
V714
p34
sI34
V713
p35
sI35
V712
p36
sI36
V711
p37
sI37
V710
p38
sI38
V915
p39
sI39
V1267
p40
sI40
V1265
p41
sI41
V914
p42
sI42
V606
p43
sI43
V1264
p44
sI44
V917
p45
sI45
V594
p46
sI46
V736
p47
sI47
V916
p48
sI48
V1182
p49
sI49
V1061
p50
sI50
V911
p51
sI51
V1063
p52
sI52
V1062
p53
sI53
V1065
p54
sI54
V1064
p55
sI55
V619
p56
sI56
V910
p57
sI57
V913
p58
sI58
V298
p59
sI59
V299
p60
sI60
V296
p61
sI61
V297
p62
sI62
V294
p63
sI63
V295
p64
sI64
V292
p65
sI65
V293
p66
sI66
V290
p67
sI67
V291
p68
sI68
V591
p69
sI69
V590
p70
sI70
V593
p71
sI71
V592
p72
sI72
V199
p73
sI73
V198
p74
sI74
V597
p75
sI75
V596
p76
sI76
V195
p77
sI77
V194
p78
sI78
V197
p79
sI79
V196
p80
sI80
V191
p81
sI81
V190
p82
sI82
V193
p83
sI83
V192
p84
sI84
V270
p85
sI85
V271
p86
sI86
V272
p87
sI87
V273
p88
sI88
V274
p89
sI89
V275
p90
sI90
V276
p91
sI91
V277
p92
sI92
V278
p93
sI93
V279
p94
sI94
V738
p95
sI95
V1067
p96
sI96
V524
p97
sI97
V525
p98
sI98
V526
p99
sI99
V527
p100
sI100
V520
p101
sI101
V521
p102
sI102
V522
p103
sI103
V523
p104
sI104
V1014
p105
sI105
V1015
p106
sI106
V599
p107
sI107
V1017
p108
sI108
V528
p109
sI109
V529
p110
sI110
V994
p111
sI111
V1013
p112
sI112
V1234
p113
sI113
V1025
p114
sI114
V449
p115
sI115
V448
p116
sI116
V1230
p117
sI117
V1231
p118
sI118
V1232
p119
sI119
V1233
p120
sI120
V443
p121
sI121
V442
p122
sI122
V441
p123
sI123
V440
p124
sI124
V447
p125
sI125
V446
p126
sI126
V445
p127
sI127
V444
p128
sI128
V108
p129
sI129
V109
p130
sI130
V1135
p131
sI131
V102
p132
sI132
V103
p133
sI133
V100
p134
sI134
V101
p135
sI135
V106
p136
sI136
V107
p137
sI137
V104
p138
sI138
V105
p139
sI139
V902
p140
sI140
V903
p141
sI141
V39
p142
sI142
V38
p143
sI143
V906
p144
sI144
V907
p145
sI145
V904
p146
sI146
V905
p147
sI147
V33
p148
sI148
V32
p149
sI149
V31
p150
sI150
V30
p151
sI151
V37
p152
sI152
V36
p153
sI153
V35
p154
sI154
V34
p155
sI155
V641
p156
sI156
V640
p157
sI157
V643
p158
sI158
V642
p159
sI159
V645
p160
sI160
V644
p161
sI161
V438
p162
sI162
V439
p163
sI163
V436
p164
sI164
V437
p165
sI165
V434
p166
sI166
V435
p167
sI167
V432
p168
sI168
V433
p169
sI169
V430
p170
sI170
V431
p171
sI171
V1156
p172
sI172
V1002
p173
sI173
V339
p174
sI174
V338
p175
sI175
V1236
p176
sI176
V335
p177
sI177
V334
p178
sI178
V337
p179
sI179
V336
p180
sI180
V331
p181
sI181
V330
p182
sI182
V333
p183
sI183
V332
p184
sI184
V1120
p185
sI185
V744
p186
sI186
V1000
p187
sI187
V745
p188
sI188
V854
p189
sI189
V818
p190
sI190
V856
p191
sI191
V857
p192
sI192
V850
p193
sI193
V851
p194
sI194
V852
p195
sI195
V345
p196
sI196
V858
p197
sI197
V859
p198
sI198
V1081
p199
sI199
V748
p200
sI200
V6
p201
sI201
V1150
p202
sI202
V900
p203
sI203
V1282
p204
sI204
V848
p205
sI205
V99
p206
sI206
V98
p207
sI207
V844
p208
sI208
V1085
p209
sI209
V91
p210
sI210
V90
p211
sI211
V93
p212
sI212
V92
p213
sI213
V95
p214
sI214
V94
p215
sI215
V97
p216
sI216
V96
p217
sI217
V1216
p218
sI218
V814
p219
sI219
V1030
p220
sI220
V815
p221
sI221
V1098
p222
sI222
V1066
p223
sI223
V740
p224
sI224
V741
p225
sI225
V742
p226
sI226
V743
p227
sI227
V559
p228
sI228
V558
p229
sI229
V746
p230
sI230
V747
p231
sI231
V555
p232
sI232
V554
p233
sI233
V557
p234
sI234
V556
p235
sI235
V551
p236
sI236
V550
p237
sI237
V553
p238
sI238
V552
p239
sI239
V238
p240
sI240
V239
p241
sI241
V234
p242
sI242
V235
p243
sI243
V236
p244
sI244
V237
p245
sI245
V230
p246
sI246
V231
p247
sI247
V232
p248
sI248
V233
p249
sI249
V1050
p250
sI250
V1051
p251
sI251
V1052
p252
sI252
V1053
p253
sI253
V1054
p254
sI254
V1055
p255
sI255
V1056
p256
sI256
V1057
p257
sI257
V1058
p258
sI258
V1059
p259
sI259
V1193
p260
sI260
V992
p261
sI261
V1195
p262
sI262
V1194
p263
sI263
V1197
p264
sI264
V1196
p265
sI265
V1
p266
sI266
V614
p267
sI267
V146
p268
sI268
V147
p269
sI269
V144
p270
sI270
V145
p271
sI271
V142
p272
sI272
V143
p273
sI273
V140
p274
sI274
V141
p275
sI275
V612
p276
sI276
V613
p277
sI277
V610
p278
sI278
V611
p279
sI279
V616
p280
sI280
V617
p281
sI281
V148
p282
sI282
V149
p283
sI283
V1007
p284
sI284
V912
p285
sI285
V1139
p286
sI286
V1006
p287
sI287
V951
p288
sI288
V1005
p289
sI289
V1285
p290
sI290
V1284
p291
sI291
V1082
p292
sI292
V1004
p293
sI293
V1281
p294
sI294
V1280
p295
sI295
V948
p296
sI296
V949
p297
sI297
V946
p298
sI298
V947
p299
sI299
V944
p300
sI300
V945
p301
sI301
V942
p302
sI302
V943
p303
sI303
V940
p304
sI304
V941
p305
sI305
V1191
p306
sI306
V768
p307
sI307
V689
p308
sI308
V688
p309
sI309
V1190
p310
sI310
V685
p311
sI311
V684
p312
sI312
V687
p313
sI313
V686
p314
sI314
V681
p315
sI315
V680
p316
sI316
V683
p317
sI317
V682
p318
sI318
V623
p319
sI319
V1192
p320
sI320
V819
p321
sI321
V1103
p322
sI322
V622
p323
sI323
V1240
p324
sI324
V1225
p325
sI325
V133
p326
sI326
V132
p327
sI327
V131
p328
sI328
V130
p329
sI329
V137
p330
sI330
V136
p331
sI331
V135
p332
sI332
V134
p333
sI333
V494
p334
sI334
V495
p335
sI335
V139
p336
sI336
V138
p337
sI337
V490
p338
sI338
V491
p339
sI339
V492
p340
sI340
V493
p341
sI341
V24
p342
sI342
V25
p343
sI343
V26
p344
sI344
V27
p345
sI345
V20
p346
sI346
V21
p347
sI347
V22
p348
sI348
V23
p349
sI349
V1243
p350
sI350
V927
p351
sI351
V28
p352
sI352
V29
p353
sI353
V407
p354
sI354
V406
p355
sI355
V405
p356
sI356
V404
p357
sI357
V403
p358
sI358
V402
p359
sI359
V401
p360
sI360
V400
p361
sI361
V933
p362
sI362
V932
p363
sI363
V931
p364
sI364
V930
p365
sI365
V937
p366
sI366
V629
p367
sI367
V409
p368
sI368
V408
p369
sI369
V1294
p370
sI370
V1069
p371
sI371
V628
p372
sI372
V1028
p373
sI373
V758
p374
sI374
V1212
p375
sI375
V1229
p376
sI376
V1178
p377
sI377
V1228
p378
sI378
V1018
p379
sI379
V379
p380
sI380
V378
p381
sI381
V829
p382
sI382
V828
p383
sI383
V1060
p384
sI384
V371
p385
sI385
V370
p386
sI386
V373
p387
sI387
V372
p388
sI388
V375
p389
sI389
V374
p390
sI390
V377
p391
sI391
V376
p392
sI392
V1019
p393
sI393
V708
p394
sI394
V709
p395
sI395
V1176
p396
sI396
V704
p397
sI397
V705
p398
sI398
V706
p399
sI399
V707
p400
sI400
V700
p401
sI401
V618
p402
sI402
V702
p403
sI403
V703
p404
sI404
V393
p405
sI405
V392
p406
sI406
V88
p407
sI407
V89
p408
sI408
V397
p409
sI409
V396
p410
sI410
V395
p411
sI411
V394
p412
sI412
V82
p413
sI413
V83
p414
sI414
V80
p415
sI415
V81
p416
sI416
V86
p417
sI417
V87
p418
sI418
V84
p419
sI419
V85
p420
sI420
V797
p421
sI421
V796
p422
sI422
V795
p423
sI423
V794
p424
sI424
V793
p425
sI425
V792
p426
sI426
V791
p427
sI427
V790
p428
sI428
V1170
p429
sI429
V799
p430
sI430
V798
p431
sI431
V1270
p432
sI432
V1262
p433
sI433
V7
p434
sI434
V601
p435
sI435
V1272
p436
sI436
V607
p437
sI437
V1246
p438
sI438
V586
p439
sI439
V587
p440
sI440
V584
p441
sI441
V585
p442
sI442
V582
p443
sI443
V583
p444
sI444
V580
p445
sI445
V581
p446
sI446
V1133
p447
sI447
V1132
p448
sI448
V1131
p449
sI449
V1130
p450
sI450
V1137
p451
sI451
V1136
p452
sI452
V588
p453
sI453
V589
p454
sI454
V245
p455
sI455
V244
p456
sI456
V247
p457
sI457
V246
p458
sI458
V241
p459
sI459
V240
p460
sI460
V243
p461
sI461
V242
p462
sI462
V1258
p463
sI463
V615
p464
sI464
V249
p465
sI465
V248
p466
sI466
V1298
p467
sI467
V1213
p468
sI468
V924
p469
sI469
V970
p470
sI470
V925
p471
sI471
V519
p472
sI472
V518
p473
sI473
V926
p474
sI474
V1009
p475
sI475
V1008
p476
sI476
V511
p477
sI477
V510
p478
sI478
V513
p479
sI479
V512
p480
sI480
V515
p481
sI481
V514
p482
sI482
V517
p483
sI483
V516
p484
sI484
V458
p485
sI485
V459
p486
sI486
V621
p487
sI487
V620
p488
sI488
V627
p489
sI489
V626
p490
sI490
V625
p491
sI491
V624
p492
sI492
V450
p493
sI493
V451
p494
sI494
V452
p495
sI495
V453
p496
sI496
V454
p497
sI497
V455
p498
sI498
V456
p499
sI499
V457
p500
sI500
V1084
p501
sI501
V979
p502
sI502
V179
p503
sI503
V178
p504
sI504
V177
p505
sI505
V176
p506
sI506
V175
p507
sI507
V174
p508
sI508
V173
p509
sI509
V172
p510
sI510
V171
p511
sI511
V170
p512
sI512
V977
p513
sI513
V656
p514
sI514
V975
p515
sI515
V974
p516
sI516
V973
p517
sI517
V972
p518
sI518
V971
p519
sI519
V657
p520
sI520
V1080
p521
sI521
V1266
p522
sI522
V654
p523
sI523
V253
p524
sI524
V978
p525
sI525
V182
p526
sI526
V183
p527
sI527
V180
p528
sI528
V181
p529
sI529
V186
p530
sI530
V187
p531
sI531
V184
p532
sI532
V185
p533
sI533
V886
p534
sI534
V652
p535
sI535
V188
p536
sI536
V189
p537
sI537
V1122
p538
sI538
V658
p539
sI539
V653
p540
sI540
V1110
p541
sI541
V1123
p542
sI542
V650
p543
sI543
V1124
p544
sI544
V651
p545
sI545
V1287
p546
sI546
V1125
p547
sI547
V1148
p548
sI548
V1286
p549
sI549
V1089
p550
sI550
V764
p551
sI551
V1088
p552
sI552
V1227
p553
sI553
V11
p554
sI554
V10
p555
sI555
V13
p556
sI556
V12
p557
sI557
V15
p558
sI558
V14
p559
sI559
V17
p560
sI560
V16
p561
sI561
V19
p562
sI562
V18
p563
sI563
V863
p564
sI564
V862
p565
sI565
V865
p566
sI566
V864
p567
sI567
V867
p568
sI568
V866
p569
sI569
V1198
p570
sI570
V884
p571
sI571
V1248
p572
sI572
V938
p573
sI573
V659
p574
sI574
V1226
p575
sI575
V883
p576
sI576
V753
p577
sI577
V881
p578
sI578
V880
p579
sI579
V887
p580
sI580
V831
p581
sI581
V885
p582
sI582
V752
p583
sI583
V928
p584
sI584
V62
p585
sI585
V888
p586
sI586
V1012
p587
sI587
V1032
p588
sI588
V1292
p589
sI589
V950
p590
sI590
V756
p591
sI591
V1179
p592
sI592
V1279
p593
sI593
V929
p594
sI594
V809
p595
sI595
V322
p596
sI596
V323
p597
sI597
V320
p598
sI598
V321
p599
sI599
V326
p600
sI600
V327
p601
sI601
V324
p602
sI602
V325
p603
sI603
V1224
p604
sI604
V328
p605
sI605
V329
p606
sI606
V759
p607
sI607
V201
p608
sI608
V200
p609
sI609
V203
p610
sI610
V202
p611
sI611
V205
p612
sI612
V204
p613
sI613
V207
p614
sI614
V206
p615
sI615
V209
p616
sI616
V208
p617
sI617
V779
p618
sI618
V778
p619
sI619
V889
p620
sI620
V77
p621
sI621
V76
p622
sI622
V75
p623
sI623
V74
p624
sI624
V73
p625
sI625
V72
p626
sI626
V71
p627
sI627
V70
p628
sI628
V655
p629
sI629
V79
p630
sI630
V78
p631
sI631
V2
p632
sI632
V1042
p633
sI633
V1041
p634
sI634
V1040
p635
sI635
V1047
p636
sI636
V1043
p637
sI637
V1045
p638
sI638
V1044
p639
sI639
V1049
p640
sI640
V1048
p641
sI641
V1222
p642
sI642
V805
p643
sI643
V804
p644
sI644
V1142
p645
sI645
V1143
p646
sI646
V1140
p647
sI647
V1141
p648
sI648
V1146
p649
sI649
V1147
p650
sI650
V669
p651
sI651
V668
p652
sI652
V667
p653
sI653
V666
p654
sI654
V665
p655
sI655
V664
p656
sI656
V663
p657
sI657
V662
p658
sI658
V661
p659
sI659
V660
p660
sI660
V1221
p661
sI661
V769
p662
sI662
V1278
p663
sI663
V692
p664
sI664
V693
p665
sI665
V690
p666
sI666
V691
p667
sI667
V696
p668
sI668
V697
p669
sI669
V694
p670
sI670
V695
p671
sI671
V1293
p672
sI672
V1297
p673
sI673
V698
p674
sI674
V699
p675
sI675
V542
p676
sI676
V543
p677
sI677
V540
p678
sI678
V541
p679
sI679
V546
p680
sI680
V547
p681
sI681
V544
p682
sI682
V545
p683
sI683
V8
p684
sI684
V548
p685
sI685
V549
p686
sI686
V68
p687
sI687
V598
p688
sI688
V995
p689
sI689
V869
p690
sI690
V997
p691
sI691
V996
p692
sI692
V991
p693
sI693
V990
p694
sI694
V993
p695
sI695
V868
p696
sI696
V999
p697
sI697
V998
p698
sI698
V120
p699
sI699
V121
p700
sI700
V122
p701
sI701
V123
p702
sI702
V124
p703
sI703
V125
p704
sI704
V126
p705
sI705
V127
p706
sI706
V128
p707
sI707
V129
p708
sI708
V765
p709
sI709
V1016
p710
sI710
V1257
p711
sI711
V1128
p712
sI712
V1010
p713
sI713
V1189
p714
sI714
V1011
p715
sI715
V414
p716
sI716
V415
p717
sI717
V416
p718
sI718
V417
p719
sI719
V410
p720
sI720
V411
p721
sI721
V412
p722
sI722
V413
p723
sI723
V920
p724
sI724
V498
p725
sI725
V922
p726
sI726
V923
p727
sI727
V418
p728
sI728
V419
p729
sI729
V776
p730
sI730
V499
p731
sI731
V319
p732
sI732
V318
p733
sI733
V1235
p734
sI734
V313
p735
sI735
V312
p736
sI736
V311
p737
sI737
V310
p738
sI738
V317
p739
sI739
V316
p740
sI740
V315
p741
sI741
V314
p742
sI742
V1237
p743
sI743
V1177
p744
sI744
V861
p745
sI745
V921
p746
sI746
V1126
p747
sI747
V1181
p748
sI748
V496
p749
sI749
V1134
p750
sI750
V832
p751
sI751
V833
p752
sI752
V830
p753
sI753
V497
p754
sI754
V836
p755
sI755
V837
p756
sI756
V834
p757
sI757
V835
p758
sI758
V838
p759
sI759
V839
p760
sI760
V808
p761
sI761
V3
p762
sI762
V725
p763
sI763
V1255
p764
sI764
V368
p765
sI765
V369
p766
sI766
V366
p767
sI767
V367
p768
sI768
V364
p769
sI769
V365
p770
sI770
V362
p771
sI771
V363
p772
sI772
V360
p773
sI773
V361
p774
sI774
V959
p775
sI775
V1168
p776
sI776
V1138
p777
sI777
V952
p778
sI778
V1238
p779
sI779
V882
p780
sI780
V1239
p781
sI781
V380
p782
sI782
V381
p783
sI783
V382
p784
sI784
V383
p785
sI785
V384
p786
sI786
V385
p787
sI787
V386
p788
sI788
V387
p789
sI789
V388
p790
sI790
V389
p791
sI791
V784
p792
sI792
V785
p793
sI793
V786
p794
sI794
V787
p795
sI795
V780
p796
sI796
V781
p797
sI797
V782
p798
sI798
V783
p799
sI799
V788
p800
sI800
V789
p801
sI801
V1174
p802
sI802
V860
p803
sI803
V1253
p804
sI804
V1223
p805
sI805
V1252
p806
sI806
V605
p807
sI807
V579
p808
sI808
V578
p809
sI809
V604
p810
sI810
V573
p811
sI811
V572
p812
sI812
V571
p813
sI813
V570
p814
sI814
V577
p815
sI815
V576
p816
sI816
V575
p817
sI817
V574
p818
sI818
V60
p819
sI819
V61
p820
sI820
V258
p821
sI821
V259
p822
sI822
V64
p823
sI823
V65
p824
sI824
V66
p825
sI825
V67
p826
sI826
V252
p827
sI827
V69
p828
sI828
V250
p829
sI829
V251
p830
sI830
V256
p831
sI831
V257
p832
sI832
V254
p833
sI833
V255
p834
sI834
V1271
p835
sI835
V603
p836
sI836
V1172
p837
sI837
V602
p838
sI838
V939
p839
sI839
V731
p840
sI840
V730
p841
sI841
V733
p842
sI842
V732
p843
sI843
V735
p844
sI844
V734
p845
sI845
V508
p846
sI846
V509
p847
sI847
V506
p848
sI848
V507
p849
sI849
V504
p850
sI850
V505
p851
sI851
V502
p852
sI852
V503
p853
sI853
V500
p854
sI854
V501
p855
sI855
V630
p856
sI856
V631
p857
sI857
V632
p858
sI858
V633
p859
sI859
V469
p860
sI860
V468
p861
sI861
V636
p862
sI862
V637
p863
sI863
V465
p864
sI864
V464
p865
sI865
V467
p866
sI866
V466
p867
sI867
V461
p868
sI868
V460
p869
sI869
V463
p870
sI870
V462
p871
sI871
V901
p872
sI872
V168
p873
sI873
V169
p874
sI874
V164
p875
sI875
V165
p876
sI876
V166
p877
sI877
V167
p878
sI878
V160
p879
sI879
V161
p880
sI880
V162
p881
sI881
V163
p882
sI882
V964
p883
sI883
V965
p884
sI884
V966
p885
sI885
V967
p886
sI886
V960
p887
sI887
V961
p888
sI888
V962
p889
sI889
V963
p890
sI890
V1129
p891
sI891
V968
p892
sI892
V969
p893
sI893
V936
p894
sI894
V1106
p895
sI895
V1107
p896
sI896
V1104
p897
sI897
V1105
p898
sI898
V1102
p899
sI899
V935
p900
sI900
V1100
p901
sI901
V1101
p902
sI902
V1217
p903
sI903
V934
p904
sI904
V1274
p905
sI905
V908
p906
sI906
V1108
p907
sI907
V1109
p908
sI908
V909
p909
sI909
V1096
p910
sI910
V1090
p911
sI911
V1275
p912
sI912
V1091
p913
sI913
V1241
p914
sI914
V600
p915
sI915
V878
p916
sI916
V879
p917
sI917
V876
p918
sI918
V877
p919
sI919
V874
p920
sI920
V875
p921
sI921
V872
p922
sI922
V873
p923
sI923
V870
p924
sI924
V871
p925
sI925
V1155
p926
sI926
V1242
p927
sI927
V1154
p928
sI928
V9
p929
sI929
V1245
p930
sI930
V1158
p931
sI931
V1157
p932
sI932
V1244
p933
sI933
V890
p934
sI934
V891
p935
sI935
V892
p936
sI936
V893
p937
sI937
V894
p938
sI938
V647
p939
sI939
V896
p940
sI940
V897
p941
sI941
V898
p942
sI942
V899
p943
sI943
V1087
p944
sI944
V646
p945
sI945
V1116
p946
sI946
V1099
p947
sI947
V649
p948
sI948
V1199
p949
sI949
V1247
p950
sI950
V1153
p951
sI951
V1277
p952
sI952
V648
p953
sI953
V1152
p954
sI954
V1273
p955
sI955
V1086
p956
sI956
V357
p957
sI957
V356
p958
sI958
V355
p959
sI959
V354
p960
sI960
V353
p961
sI961
V352
p962
sI962
V351
p963
sI963
V350
p964
sI964
V803
p965
sI965
V802
p966
sI966
V801
p967
sI967
V800
p968
sI968
V807
p969
sI969
V806
p970
sI970
V359
p971
sI971
V358
p972
sI972
V216
p973
sI973
V217
p974
sI974
V214
p975
sI975
V215
p976
sI976
V212
p977
sI977
V213
p978
sI978
V210
p979
sI979
V211
p980
sI980
V762
p981
sI981
V763
p982
sI982
V760
p983
sI983
V761
p984
sI984
V766
p985
sI985
V767
p986
sI986
V218
p987
sI987
V219
p988
sI988
V957
p989
sI989
V956
p990
sI990
V1033
p991
sI991
V1169
p992
sI992
V1283
p993
sI993
V1078
p994
sI994
V1079
p995
sI995
V1076
p996
sI996
V1077
p997
sI997
V1074
p998
sI998
V1075
p999
sI999
V1072
p1000
sI1000
V1073
p1001
sI1001
V1070
p1002
sI1002
V1071
p1003
sI1003
V289
p1004
sI1004
V288
p1005
sI1005
V1003
p1006
sI1006
V4
p1007
sI1007
V281
p1008
sI1008
V280
p1009
sI1009
V283
p1010
sI1010
V282
p1011
sI1011
V285
p1012
sI1012
V284
p1013
sI1013
V287
p1014
sI1014
V286
p1015
sI1015
V1094
p1016
sI1016
V1095
p1017
sI1017
V1083
p1018
sI1018
V1097
p1019
sI1019
V678
p1020
sI1020
V679
p1021
sI1021
V1092
p1022
sI1022
V1093
p1023
sI1023
V674
p1024
sI1024
V675
p1025
sI1025
V676
p1026
sI1026
V677
p1027
sI1027
V670
p1028
sI1028
V671
p1029
sI1029
V672
p1030
sI1030
V673
p1031
sI1031
V263
p1032
sI1032
V262
p1033
sI1033
V261
p1034
sI1034
V260
p1035
sI1035
V267
p1036
sI1036
V266
p1037
sI1037
V265
p1038
sI1038
V264
p1039
sI1039
V1121
p1040
sI1040
V1031
p1041
sI1041
V269
p1042
sI1042
V268
p1043
sI1043
V701
p1044
sI1044
V59
p1045
sI1045
V58
p1046
sI1046
V1215
p1047
sI1047
V55
p1048
sI1048
V54
p1049
sI1049
V57
p1050
sI1050
V56
p1051
sI1051
V51
p1052
sI1052
V50
p1053
sI1053
V53
p1054
sI1054
V52
p1055
sI1055
V537
p1056
sI1056
V536
p1057
sI1057
V535
p1058
sI1058
V63
p1059
sI1059
V533
p1060
sI1060
V532
p1061
sI1061
V531
p1062
sI1062
V530
p1063
sI1063
V539
p1064
sI1064
V538
p1065
sI1065
V987
p1066
sI1066
V775
p1067
sI1067
V988
p1068
sI1068
V989
p1069
sI1069
V1171
p1070
sI1070
V774
p1071
sI1071
V982
p1072
sI1072
V983
p1073
sI1073
V980
p1074
sI1074
V981
p1075
sI1075
V986
p1076
sI1076
V777
p1077
sI1077
V984
p1078
sI1078
V985
p1079
sI1079
V115
p1080
sI1080
V114
p1081
sI1081
V117
p1082
sI1082
V116
p1083
sI1083
V111
p1084
sI1084
V110
p1085
sI1085
V113
p1086
sI1086
V112
p1087
sI1087
V771
p1088
sI1088
V119
p1089
sI1089
V118
p1090
sI1090
V770
p1091
sI1091
V1289
p1092
sI1092
V1187
p1093
sI1093
V773
p1094
sI1094
V1205
p1095
sI1095
V772
p1096
sI1096
V953
p1097
sI1097
V429
p1098
sI1098
V428
p1099
sI1099
V1254
p1100
sI1100
V534
p1101
sI1101
V919
p1102
sI1102
V918
p1103
sI1103
V1250
p1104
sI1104
V1251
p1105
sI1105
V421
p1106
sI1106
V420
p1107
sI1107
V423
p1108
sI1108
V422
p1109
sI1109
V425
p1110
sI1110
V424
p1111
sI1111
V427
p1112
sI1112
V426
p1113
sI1113
V308
p1114
sI1114
V309
p1115
sI1115
V855
p1116
sI1116
V300
p1117
sI1117
V301
p1118
sI1118
V302
p1119
sI1119
V303
p1120
sI1120
V304
p1121
sI1121
V305
p1122
sI1122
V306
p1123
sI1123
V307
p1124
sI1124
V895
p1125
sI1125
V825
p1126
sI1126
V1263
p1127
sI1127
V824
p1128
sI1128
V827
p1129
sI1129
V847
p1130
sI1130
V846
p1131
sI1131
V845
p1132
sI1132
V826
p1133
sI1133
V843
p1134
sI1134
V842
p1135
sI1135
V841
p1136
sI1136
V840
p1137
sI1137
V1151
p1138
sI1138
V821
p1139
sI1139
V853
p1140
sI1140
V849
p1141
sI1141
V820
p1142
sI1142
V823
p1143
sI1143
V1209
p1144
sI1144
V822
p1145
sI1145
V1249
p1146
sI1146
V1164
p1147
sI1147
V1210
p1148
sI1148
V954
p1149
sI1149
V1034
p1150
sI1150
V1127
p1151
sI1151
V1159
p1152
sI1152
V1276
p1153
sI1153
V1208
p1154
sI1154
V1165
p1155
sI1155
V1068
p1156
sI1156
V1261
p1157
sI1157
V1038
p1158
sI1158
V1039
p1159
sI1159
V1220
p1160
sI1160
V1288
p1161
sI1161
V1046
p1162
sI1162
V1166
p1163
sI1163
V568
p1164
sI1164
V569
p1165
sI1165
V751
p1166
sI1166
V750
p1167
sI1167
V757
p1168
sI1168
V737
p1169
sI1169
V755
p1170
sI1170
V754
p1171
sI1171
V560
p1172
sI1172
V561
p1173
sI1173
V562
p1174
sI1174
V563
p1175
sI1175
V564
p1176
sI1176
V565
p1177
sI1177
V566
p1178
sI1178
V567
p1179
sI1179
V739
p1180
sI1180
V1259
p1181
sI1181
V229
p1182
sI1182
V228
p1183
sI1183
V227
p1184
sI1184
V226
p1185
sI1185
V225
p1186
sI1186
V224
p1187
sI1187
V223
p1188
sI1188
V222
p1189
sI1189
V221
p1190
sI1190
V220
p1191
sI1191
V1001
p1192
sI1192
V1024
p1193
sI1193
V1027
p1194
sI1194
V1026
p1195
sI1195
V1021
p1196
sI1196
V1020
p1197
sI1197
V1023
p1198
sI1198
V1022
p1199
sI1199
V1186
p1200
sI1200
V1036
p1201
sI1201
V1184
p1202
sI1202
V1115
p1203
sI1203
V1029
p1204
sI1204
V391
p1205
sI1205
V1180
p1206
sI1206
V1037
p1207
sI1207
V726
p1208
sI1208
V727
p1209
sI1209
V724
p1210
sI1210
V390
p1211
sI1211
V722
p1212
sI1212
V723
p1213
sI1213
V720
p1214
sI1214
V721
p1215
sI1215
V1160
p1216
sI1216
V1035
p1217
sI1217
V1167
p1218
sI1218
V728
p1219
sI1219
V729
p1220
sI1220
V151
p1221
sI1221
V150
p1222
sI1222
V153
p1223
sI1223
V152
p1224
sI1224
V155
p1225
sI1225
V154
p1226
sI1226
V157
p1227
sI1227
V156
p1228
sI1228
V159
p1229
sI1229
V158
p1230
sI1230
V1207
p1231
sI1231
V1206
p1232
sI1232
V609
p1233
sI1233
V608
p1234
sI1234
V1203
p1235
sI1235
V1202
p1236
sI1236
V1204
p1237
sI1237
V1211
p1238
sI1238
V976
p1239
sI1239
V1161
p1240
sI1240
V634
p1241
sI1241
V399
p1242
sI1242
V635
p1243
sI1243
V749
p1244
sI1244
V958
p1245
sI1245
V398
p1246
sI1246
V1214
p1247
sI1247
V48
p1248
sI1248
V49
p1249
sI1249
V46
p1250
sI1250
V47
p1251
sI1251
V44
p1252
sI1252
V45
p1253
sI1253
V42
p1254
sI1254
V43
p1255
sI1255
V40
p1256
sI1256
V41
p1257
sI1257
V1111
p1258
sI1258
V638
p1259
sI1259
V1113
p1260
sI1260
V1112
p1261
sI1261
V5
p1262
sI1262
V1114
p1263
sI1263
V1117
p1264
sI1264
V639
p1265
sI1265
V1119
p1266
sI1266
V1118
p1267
sI1267
V1290
p1268
sI1268
V1291
p1269
sI1269
V1296
p1270
sI1270
V1173
p1271
sI1271
V1260
p1272
sI1272
V1295
p1273
sI1273
V1188
p1274
sI1274
V1219
p1275
sI1275
V1185
p1276
sI1276
V1163
p1277
sI1277
V489
p1278
sI1278
V488
p1279
sI1279
V487
p1280
sI1280
V486
p1281
sI1281
V485
p1282
sI1282
V484
p1283
sI1283
V483
p1284
sI1284
V482
p1285
sI1285
V481
p1286
sI1286
V480
p1287
sI1287
V955
p1288
sI1288
V1201
p1289
sI1289
V472
p1290
sI1290
V473
p1291
sI1291
V470
p1292
sI1292
V471
p1293
sI1293
V476
p1294
sI1294
V477
p1295
sI1295
V474
p1296
sI1296
V475
p1297
sI1297
V478
p1298
sI1298
V479
p1299
s.